(dp1
I2004
(dp2
I129
(dp3
I16
(lp4
(lp5
I2
aI5
aa(lp6
I2
aI0
aasI131
(lp7
(lp8
I0
aI3
aa(lp9
I5
aI1
aasI100
(lp10
(lp11
I1
aI2
aa(lp12
I1
aI0
aasI6
(lp13
(lp14
I2
aI2
aa(lp15
I0
aI4
aasI134
(lp16
(lp17
I1
aI4
aa(lp18
I0
aI4
aasI7
(lp19
(lp20
I2
aI2
aa(lp21
I0
aI1
aasI40
(lp22
(lp23
I1
aI3
aa(lp24
I1
aI3
aasI9
(lp25
(lp26
I2
aI3
aa(lp27
I0
aI2
aasI55
(lp28
(lp29
I0
aI3
aa(lp30
I1
aI0
aasI76
(lp31
(lp32
I1
aI1
aa(lp33
I2
aI1
aasI79
(lp34
(lp35
I3
aI1
aa(lp36
I1
aI2
aasI112
(lp37
(lp38
I1
aI1
aa(lp39
I3
aI1
aasI81
(lp40
(lp41
I0
aI1
aa(lp42
I2
aI6
aasI83
(lp43
(lp44
I2
aI1
aa(lp45
I1
aI1
aasI54
(lp46
(lp47
I2
aI2
aa(lp48
I2
aI2
aasI87
(lp49
(lp50
I3
aI0
aa(lp51
I2
aI2
aasI102
(lp52
(lp53
I0
aI1
aa(lp54
I1
aI3
aassI131
(dp55
I129
(lp56
(lp57
I3
aI0
aa(lp58
I1
aI5
aasI100
(lp59
(lp60
I1
aI3
aa(lp61
I1
aI0
aasI134
(lp62
(lp63
I2
aI1
aa(lp64
I2
aI3
aasI102
(lp65
(lp66
I2
aI1
aa(lp67
I4
aI0
aasI7
(lp68
(lp69
I2
aI1
aa(lp70
I1
aI2
aasI40
(lp71
(lp72
I0
aI2
aa(lp73
I0
aI3
aasI9
(lp74
(lp75
I3
aI0
aa(lp76
I0
aI3
aasI55
(lp77
(lp78
I0
aI3
aa(lp79
I1
aI0
aasI76
(lp80
(lp81
I2
aI1
aa(lp82
I0
aI0
aasI79
(lp83
(lp84
I0
aI4
aa(lp85
I0
aI1
aasI112
(lp86
(lp87
I0
aI1
aa(lp88
I0
aI1
aasI81
(lp89
(lp90
I4
aI3
aa(lp91
I2
aI0
aasI83
(lp92
(lp93
I5
aI0
aa(lp94
I2
aI1
aasI54
(lp95
(lp96
I2
aI3
aa(lp97
I1
aI3
aasI87
(lp98
(lp99
I2
aI1
aa(lp100
I0
aI1
aasI6
(lp101
(lp102
I1
aI2
aa(lp103
I2
aI2
aasI16
(lp104
(lp105
I3
aI0
aa(lp106
I0
aI0
aassI100
(dp107
I112
(lp108
(lp109
I4
aI0
aa(lp110
I1
aI1
aasI131
(lp111
(lp112
I3
aI1
aa(lp113
I0
aI1
aasI134
(lp114
(lp115
I1
aI1
aa(lp116
I1
aI2
aasI6
(lp117
(lp118
I0
aI3
aa(lp119
I1
aI0
aasI7
(lp120
(lp121
I2
aI0
aa(lp122
I2
aI3
aasI40
(lp123
(lp124
I0
aI2
aa(lp125
I0
aI3
aasI9
(lp126
(lp127
I1
aI2
aa(lp128
I2
aI1
aasI55
(lp129
(lp130
I0
aI2
aa(lp131
I1
aI2
aasI76
(lp132
(lp133
I1
aI2
aa(lp134
I2
aI1
aasI129
(lp135
(lp136
I2
aI1
aa(lp137
I0
aI1
aasI79
(lp138
(lp139
I4
aI3
aa(lp140
I3
aI1
aasI16
(lp141
(lp142
I0
aI2
aa(lp143
I2
aI1
aasI81
(lp144
(lp145
I1
aI2
aa(lp146
I2
aI1
aasI83
(lp147
(lp148
I0
aI2
aa(lp149
I4
aI3
aasI54
(lp150
(lp151
I2
aI1
aa(lp152
I1
aI4
aasI87
(lp153
(lp154
I3
aI1
aa(lp155
I0
aI0
aasI102
(lp156
(lp157
I6
aI0
aa(lp158
I3
aI0
aassI6
(dp159
I129
(lp160
(lp161
I2
aI2
aa(lp162
I4
aI0
aasI131
(lp163
(lp164
I2
aI1
aa(lp165
I2
aI2
aasI100
(lp166
(lp167
I3
aI0
aa(lp168
I0
aI1
aasI102
(lp169
(lp170
I2
aI0
aa(lp171
I3
aI0
aasI134
(lp172
(lp173
I2
aI2
aa(lp174
I2
aI1
aasI7
(lp175
(lp176
I0
aI1
aa(lp177
I0
aI1
aasI40
(lp178
(lp179
I4
aI1
aa(lp180
I0
aI2
aasI112
(lp181
(lp182
I4
aI1
aa(lp183
I3
aI1
aasI87
(lp184
(lp185
I1
aI1
aa(lp186
I5
aI1
aasI76
(lp187
(lp188
I0
aI0
aa(lp189
I2
aI0
aasI79
(lp190
(lp191
I2
aI2
aa(lp192
I4
aI2
aasI16
(lp193
(lp194
I0
aI3
aa(lp195
I1
aI1
aasI81
(lp196
(lp197
I0
aI2
aa(lp198
I2
aI0
aasI83
(lp199
(lp200
I3
aI2
aa(lp201
I0
aI1
aasI9
(lp202
(lp203
I0
aI3
aa(lp204
I3
aI3
aasI54
(lp205
(lp206
I1
aI3
aa(lp207
I3
aI3
aasI55
(lp208
(lp209
I2
aI1
aa(lp210
I3
aI0
aassI134
(dp211
I129
(lp212
(lp213
I4
aI1
aa(lp214
I4
aI0
aasI131
(lp215
(lp216
I1
aI2
aa(lp217
I3
aI2
aasI100
(lp218
(lp219
I1
aI1
aa(lp220
I2
aI1
aasI6
(lp221
(lp222
I2
aI2
aa(lp223
I1
aI2
aasI102
(lp224
(lp225
I4
aI0
aa(lp226
I3
aI2
aasI7
(lp227
(lp228
I2
aI0
aa(lp229
I0
aI1
aasI40
(lp230
(lp231
I1
aI2
aa(lp232
I0
aI1
aasI9
(lp233
(lp234
I1
aI0
aa(lp235
I1
aI2
aasI87
(lp236
(lp237
I1
aI3
aa(lp238
I2
aI0
aasI76
(lp239
(lp240
I1
aI1
aa(lp241
I2
aI1
aasI112
(lp242
(lp243
I6
aI0
aa(lp244
I4
aI1
aasI79
(lp245
(lp246
I4
aI1
aa(lp247
I2
aI1
aasI16
(lp248
(lp249
I2
aI1
aa(lp250
I1
aI2
aasI81
(lp251
(lp252
I1
aI2
aa(lp253
I0
aI0
aasI83
(lp254
(lp255
I1
aI2
aa(lp256
I3
aI0
aasI54
(lp257
(lp258
I1
aI1
aa(lp259
I0
aI1
aasI55
(lp260
(lp261
I3
aI0
aa(lp262
I4
aI1
aassI7
(dp263
I129
(lp264
(lp265
I2
aI2
aa(lp266
I1
aI0
aasI131
(lp267
(lp268
I1
aI2
aa(lp269
I2
aI1
aasI100
(lp270
(lp271
I0
aI2
aa(lp272
I3
aI2
aasI134
(lp273
(lp274
I0
aI2
aa(lp275
I1
aI0
aasI6
(lp276
(lp277
I1
aI0
aa(lp278
I1
aI0
aasI40
(lp279
(lp280
I2
aI2
aa(lp281
I0
aI5
aasI112
(lp282
(lp283
I2
aI0
aa(lp284
I2
aI2
aasI87
(lp285
(lp286
I3
aI2
aa(lp287
I1
aI1
aasI76
(lp288
(lp289
I0
aI1
aa(lp290
I4
aI2
aasI79
(lp291
(lp292
I2
aI2
aa(lp293
I2
aI2
aasI16
(lp294
(lp295
I0
aI2
aa(lp296
I0
aI2
aasI81
(lp297
(lp298
I1
aI1
aa(lp299
I3
aI0
aasI83
(lp300
(lp301
I0
aI1
aa(lp302
I1
aI1
aasI9
(lp303
(lp304
I0
aI1
aa(lp305
I2
aI1
aasI54
(lp306
(lp307
I1
aI0
aa(lp308
I2
aI1
aasI55
(lp309
(lp310
I1
aI1
aa(lp311
I3
aI1
aasI102
(lp312
(lp313
I1
aI1
aa(lp314
I2
aI1
aassI40
(dp315
I129
(lp316
(lp317
I3
aI1
aa(lp318
I3
aI1
aasI131
(lp319
(lp320
I2
aI0
aa(lp321
I3
aI0
aasI100
(lp322
(lp323
I2
aI0
aa(lp324
I3
aI0
aasI134
(lp325
(lp326
I2
aI1
aa(lp327
I1
aI0
aasI6
(lp328
(lp329
I1
aI4
aa(lp330
I2
aI0
aasI7
(lp331
(lp332
I2
aI2
aa(lp333
I5
aI0
aasI9
(lp334
(lp335
I0
aI1
aa(lp336
I0
aI1
aasI55
(lp337
(lp338
I3
aI0
aa(lp339
I1
aI0
aasI76
(lp340
(lp341
I3
aI1
aa(lp342
I4
aI0
aasI79
(lp343
(lp344
I2
aI2
aa(lp345
I6
aI3
aasI112
(lp346
(lp347
I3
aI1
aa(lp348
I1
aI0
aasI81
(lp349
(lp350
I4
aI2
aa(lp351
I4
aI2
aasI83
(lp352
(lp353
I1
aI0
aa(lp354
I1
aI3
aasI54
(lp355
(lp356
I1
aI1
aa(lp357
I0
aI0
aasI87
(lp358
(lp359
I0
aI2
aa(lp360
I2
aI1
aasI102
(lp361
(lp362
I2
aI0
aa(lp363
I3
aI1
aasI16
(lp364
(lp365
I2
aI2
aa(lp366
I3
aI1
aassI9
(dp367
I129
(lp368
(lp369
I3
aI2
aa(lp370
I2
aI0
aasI131
(lp371
(lp372
I0
aI3
aa(lp373
I3
aI0
aasI100
(lp374
(lp375
I2
aI1
aa(lp376
I1
aI2
aasI134
(lp377
(lp378
I0
aI1
aa(lp379
I2
aI1
aasI102
(lp380
(lp381
I0
aI2
aa(lp382
I2
aI2
aasI7
(lp383
(lp384
I1
aI0
aa(lp385
I1
aI2
aasI40
(lp386
(lp387
I1
aI0
aa(lp388
I1
aI0
aasI112
(lp389
(lp390
I1
aI1
aa(lp391
I3
aI2
aasI87
(lp392
(lp393
I3
aI2
aa(lp394
I3
aI1
aasI76
(lp395
(lp396
I2
aI1
aa(lp397
I0
aI2
aasI79
(lp398
(lp399
I2
aI0
aa(lp400
I4
aI1
aasI16
(lp401
(lp402
I3
aI2
aa(lp403
I0
aI3
aasI81
(lp404
(lp405
I2
aI1
aa(lp406
I1
aI2
aasI83
(lp407
(lp408
I2
aI1
aa(lp409
I2
aI0
aasI54
(lp410
(lp411
I1
aI3
aa(lp412
I1
aI4
aasI55
(lp413
(lp414
I0
aI1
aa(lp415
I1
aI0
aasI6
(lp416
(lp417
I3
aI0
aa(lp418
I3
aI3
aassI87
(dp419
I129
(lp420
(lp421
I0
aI3
aa(lp422
I2
aI2
aasI131
(lp423
(lp424
I1
aI2
aa(lp425
I1
aI0
aasI100
(lp426
(lp427
I1
aI3
aa(lp428
I0
aI0
aasI134
(lp429
(lp430
I3
aI1
aa(lp431
I0
aI2
aasI102
(lp432
(lp433
I2
aI2
aa(lp434
I0
aI0
aasI7
(lp435
(lp436
I2
aI3
aa(lp437
I1
aI1
aasI40
(lp438
(lp439
I2
aI0
aa(lp440
I1
aI2
aasI9
(lp441
(lp442
I2
aI3
aa(lp443
I1
aI3
aasI76
(lp444
(lp445
I2
aI0
aa(lp446
I0
aI1
aasI79
(lp447
(lp448
I2
aI1
aa(lp449
I0
aI0
aasI112
(lp450
(lp451
I1
aI1
aa(lp452
I3
aI2
aasI81
(lp453
(lp454
I1
aI1
aa(lp455
I1
aI1
aasI83
(lp456
(lp457
I0
aI0
aa(lp458
I1
aI0
aasI54
(lp459
(lp460
I0
aI6
aa(lp461
I0
aI0
aasI55
(lp462
(lp463
I0
aI2
aa(lp464
I1
aI2
aasI6
(lp465
(lp466
I1
aI1
aa(lp467
I1
aI5
aasI16
(lp468
(lp469
I0
aI1
aa(lp470
I2
aI0
aassI76
(dp471
I129
(lp472
(lp473
I1
aI1
aa(lp474
I1
aI2
aasI131
(lp475
(lp476
I1
aI2
aa(lp477
I0
aI0
aasI100
(lp478
(lp479
I2
aI1
aa(lp480
I1
aI2
aasI6
(lp481
(lp482
I0
aI0
aa(lp483
I0
aI2
aasI102
(lp484
(lp485
I3
aI2
aa(lp486
I2
aI1
aasI7
(lp487
(lp488
I1
aI0
aa(lp489
I2
aI4
aasI40
(lp490
(lp491
I1
aI3
aa(lp492
I0
aI4
aasI9
(lp493
(lp494
I1
aI2
aa(lp495
I2
aI0
aasI55
(lp496
(lp497
I1
aI3
aa(lp498
I0
aI2
aasI112
(lp499
(lp500
I3
aI0
aa(lp501
I2
aI1
aasI79
(lp502
(lp503
I1
aI3
aa(lp504
I3
aI1
aasI16
(lp505
(lp506
I2
aI3
aa(lp507
I1
aI1
aasI81
(lp508
(lp509
I2
aI0
aa(lp510
I2
aI3
aasI83
(lp511
(lp512
I2
aI1
aa(lp513
I2
aI0
aasI54
(lp514
(lp515
I0
aI2
aa(lp516
I1
aI1
aasI87
(lp517
(lp518
I0
aI2
aa(lp519
I1
aI0
aasI134
(lp520
(lp521
I1
aI1
aa(lp522
I1
aI2
aassI79
(dp523
I112
(lp524
(lp525
I3
aI0
aa(lp526
I3
aI2
aasI131
(lp527
(lp528
I4
aI0
aa(lp529
I1
aI0
aasI100
(lp530
(lp531
I3
aI4
aa(lp532
I1
aI3
aasI134
(lp533
(lp534
I1
aI4
aa(lp535
I1
aI2
aasI6
(lp536
(lp537
I2
aI2
aa(lp538
I2
aI4
aasI7
(lp539
(lp540
I2
aI2
aa(lp541
I2
aI2
aasI129
(lp542
(lp543
I1
aI3
aa(lp544
I2
aI1
aasI9
(lp545
(lp546
I0
aI2
aa(lp547
I1
aI4
aasI55
(lp548
(lp549
I1
aI1
aa(lp550
I0
aI1
aasI76
(lp551
(lp552
I3
aI1
aa(lp553
I1
aI3
aasI16
(lp554
(lp555
I1
aI1
aa(lp556
I4
aI2
aasI40
(lp557
(lp558
I2
aI2
aa(lp559
I3
aI6
aasI83
(lp560
(lp561
I1
aI2
aa(lp562
I1
aI3
aasI54
(lp563
(lp564
I0
aI0
aa(lp565
I1
aI2
aasI87
(lp566
(lp567
I1
aI2
aa(lp568
I0
aI0
aasI102
(lp569
(lp570
I2
aI0
aa(lp571
I3
aI0
aasI81
(lp572
(lp573
I1
aI0
aa(lp574
I1
aI2
aassI112
(dp575
I129
(lp576
(lp577
I1
aI1
aa(lp578
I1
aI3
aasI131
(lp579
(lp580
I1
aI0
aa(lp581
I1
aI0
aasI100
(lp582
(lp583
I0
aI4
aa(lp584
I1
aI1
aasI6
(lp585
(lp586
I1
aI4
aa(lp587
I1
aI3
aasI102
(lp588
(lp589
I0
aI0
aa(lp590
I0
aI0
aasI7
(lp591
(lp592
I0
aI2
aa(lp593
I2
aI2
aasI40
(lp594
(lp595
I1
aI3
aa(lp596
I0
aI1
aasI9
(lp597
(lp598
I1
aI1
aa(lp599
I2
aI3
aasI87
(lp600
(lp601
I1
aI1
aa(lp602
I2
aI3
aasI76
(lp603
(lp604
I0
aI3
aa(lp605
I1
aI2
aasI79
(lp606
(lp607
I0
aI3
aa(lp608
I2
aI3
aasI16
(lp609
(lp610
I2
aI0
aa(lp611
I0
aI1
aasI81
(lp612
(lp613
I1
aI2
aa(lp614
I0
aI5
aasI83
(lp615
(lp616
I2
aI3
aa(lp617
I1
aI3
aasI54
(lp618
(lp619
I1
aI3
aa(lp620
I1
aI3
aasI55
(lp621
(lp622
I2
aI2
aa(lp623
I0
aI0
aasI134
(lp624
(lp625
I0
aI6
aa(lp626
I1
aI4
aassI81
(dp627
I112
(lp628
(lp629
I2
aI1
aa(lp630
I5
aI0
aasI131
(lp631
(lp632
I3
aI4
aa(lp633
I0
aI2
aasI100
(lp634
(lp635
I2
aI1
aa(lp636
I1
aI2
aasI134
(lp637
(lp638
I2
aI1
aa(lp639
I0
aI0
aasI6
(lp640
(lp641
I2
aI0
aa(lp642
I0
aI2
aasI7
(lp643
(lp644
I1
aI1
aa(lp645
I0
aI3
aasI129
(lp646
(lp647
I1
aI0
aa(lp648
I6
aI2
aasI9
(lp649
(lp650
I1
aI2
aa(lp651
I2
aI1
aasI55
(lp652
(lp653
I0
aI2
aa(lp654
I2
aI0
aasI76
(lp655
(lp656
I0
aI2
aa(lp657
I3
aI2
aasI79
(lp658
(lp659
I0
aI1
aa(lp660
I2
aI1
aasI16
(lp661
(lp662
I2
aI4
aa(lp663
I2
aI3
aasI40
(lp664
(lp665
I2
aI4
aa(lp666
I2
aI4
aasI83
(lp667
(lp668
I1
aI1
aa(lp669
I0
aI0
aasI54
(lp670
(lp671
I1
aI1
aa(lp672
I0
aI3
aasI87
(lp673
(lp674
I1
aI1
aa(lp675
I1
aI1
aasI102
(lp676
(lp677
I3
aI1
aa(lp678
I0
aI2
aassI83
(dp679
I129
(lp680
(lp681
I1
aI2
aa(lp682
I1
aI1
aasI131
(lp683
(lp684
I0
aI5
aa(lp685
I1
aI2
aasI100
(lp686
(lp687
I2
aI0
aa(lp688
I3
aI4
aasI134
(lp689
(lp690
I2
aI1
aa(lp691
I0
aI3
aasI6
(lp692
(lp693
I2
aI3
aa(lp694
I1
aI0
aasI7
(lp695
(lp696
I1
aI0
aa(lp697
I1
aI1
aasI40
(lp698
(lp699
I0
aI1
aa(lp700
I3
aI1
aasI112
(lp701
(lp702
I3
aI2
aa(lp703
I3
aI1
aasI87
(lp704
(lp705
I0
aI0
aa(lp706
I0
aI1
aasI76
(lp707
(lp708
I1
aI2
aa(lp709
I0
aI2
aasI79
(lp710
(lp711
I2
aI1
aa(lp712
I3
aI1
aasI16
(lp713
(lp714
I0
aI2
aa(lp715
I1
aI2
aasI81
(lp716
(lp717
I1
aI1
aa(lp718
I0
aI0
aasI9
(lp719
(lp720
I1
aI2
aa(lp721
I0
aI2
aasI54
(lp722
(lp723
I1
aI0
aa(lp724
I0
aI3
aasI55
(lp725
(lp726
I1
aI0
aa(lp727
I0
aI1
aasI102
(lp728
(lp729
I1
aI1
aa(lp730
I1
aI1
aassI54
(dp731
I129
(lp732
(lp733
I2
aI2
aa(lp734
I2
aI2
aasI131
(lp735
(lp736
I3
aI2
aa(lp737
I3
aI1
aasI100
(lp738
(lp739
I1
aI2
aa(lp740
I4
aI1
aasI134
(lp741
(lp742
I1
aI1
aa(lp743
I1
aI0
aasI6
(lp744
(lp745
I3
aI1
aa(lp746
I3
aI3
aasI7
(lp747
(lp748
I0
aI1
aa(lp749
I1
aI2
aasI40
(lp750
(lp751
I1
aI1
aa(lp752
I0
aI0
aasI112
(lp753
(lp754
I3
aI1
aa(lp755
I3
aI1
aasI87
(lp756
(lp757
I6
aI0
aa(lp758
I0
aI0
aasI76
(lp759
(lp760
I2
aI0
aa(lp761
I1
aI1
aasI79
(lp762
(lp763
I0
aI0
aa(lp764
I2
aI1
aasI16
(lp765
(lp766
I0
aI0
aa(lp767
I0
aI1
aasI81
(lp768
(lp769
I1
aI1
aa(lp770
I3
aI0
aasI83
(lp771
(lp772
I0
aI1
aa(lp773
I3
aI0
aasI9
(lp774
(lp775
I3
aI1
aa(lp776
I4
aI1
aasI55
(lp777
(lp778
I1
aI0
aa(lp779
I0
aI0
aasI102
(lp780
(lp781
I1
aI1
aa(lp782
I1
aI2
aassI55
(dp783
I129
(lp784
(lp785
I3
aI0
aa(lp786
I0
aI1
aasI131
(lp787
(lp788
I3
aI0
aa(lp789
I0
aI1
aasI100
(lp790
(lp791
I2
aI0
aa(lp792
I2
aI1
aasI6
(lp793
(lp794
I1
aI2
aa(lp795
I0
aI3
aasI134
(lp796
(lp797
I0
aI3
aa(lp798
I1
aI4
aasI7
(lp799
(lp800
I1
aI1
aa(lp801
I1
aI3
aasI40
(lp802
(lp803
I0
aI3
aa(lp804
I0
aI1
aasI9
(lp805
(lp806
I1
aI0
aa(lp807
I0
aI1
aasI76
(lp808
(lp809
I3
aI1
aa(lp810
I2
aI0
aasI79
(lp811
(lp812
I1
aI1
aa(lp813
I1
aI0
aasI112
(lp814
(lp815
I2
aI2
aa(lp816
I0
aI0
aasI81
(lp817
(lp818
I2
aI0
aa(lp819
I0
aI2
aasI83
(lp820
(lp821
I0
aI1
aa(lp822
I1
aI0
aasI54
(lp823
(lp824
I0
aI1
aa(lp825
I0
aI0
aasI87
(lp826
(lp827
I2
aI0
aa(lp828
I2
aI1
aasI102
(lp829
(lp830
I3
aI1
aa(lp831
I0
aI1
aasI16
(lp832
(lp833
I0
aI0
aa(lp834
I0
aI1
aassI102
(dp835
I129
(lp836
(lp837
I1
aI0
aa(lp838
I3
aI1
aasI131
(lp839
(lp840
I1
aI2
aa(lp841
I0
aI4
aasI100
(lp842
(lp843
I0
aI6
aa(lp844
I0
aI3
aasI6
(lp845
(lp846
I0
aI2
aa(lp847
I0
aI3
aasI134
(lp848
(lp849
I0
aI4
aa(lp850
I2
aI3
aasI7
(lp851
(lp852
I1
aI1
aa(lp853
I1
aI2
aasI40
(lp854
(lp855
I0
aI2
aa(lp856
I1
aI3
aasI9
(lp857
(lp858
I2
aI0
aa(lp859
I2
aI2
aasI55
(lp860
(lp861
I1
aI3
aa(lp862
I1
aI0
aasI76
(lp863
(lp864
I2
aI3
aa(lp865
I1
aI2
aasI79
(lp866
(lp867
I0
aI2
aa(lp868
I0
aI3
aasI112
(lp869
(lp870
I0
aI0
aa(lp871
I0
aI0
aasI81
(lp872
(lp873
I1
aI3
aa(lp874
I2
aI0
aasI83
(lp875
(lp876
I1
aI1
aa(lp877
I1
aI1
aasI54
(lp878
(lp879
I1
aI1
aa(lp880
I2
aI1
aasI87
(lp881
(lp882
I2
aI2
aa(lp883
I0
aI0
aasI16
(lp884
(lp885
I0
aI4
aa(lp886
I2
aI1
aassI16
(dp887
I129
(lp888
(lp889
I5
aI2
aa(lp890
I0
aI2
aasI131
(lp891
(lp892
I0
aI3
aa(lp893
I0
aI0
aasI100
(lp894
(lp895
I2
aI0
aa(lp896
I1
aI2
aasI134
(lp897
(lp898
I1
aI2
aa(lp899
I2
aI1
aasI6
(lp900
(lp901
I3
aI0
aa(lp902
I1
aI1
aasI7
(lp903
(lp904
I2
aI0
aa(lp905
I2
aI0
aasI40
(lp906
(lp907
I2
aI2
aa(lp908
I1
aI3
aasI9
(lp909
(lp910
I2
aI3
aa(lp911
I3
aI0
aasI55
(lp912
(lp913
I0
aI0
aa(lp914
I1
aI0
aasI76
(lp915
(lp916
I3
aI2
aa(lp917
I1
aI1
aasI79
(lp918
(lp919
I1
aI1
aa(lp920
I2
aI4
aasI112
(lp921
(lp922
I0
aI2
aa(lp923
I1
aI0
aasI81
(lp924
(lp925
I4
aI2
aa(lp926
I3
aI2
aasI83
(lp927
(lp928
I2
aI0
aa(lp929
I2
aI1
aasI54
(lp930
(lp931
I0
aI0
aa(lp932
I1
aI0
aasI87
(lp933
(lp934
I1
aI0
aa(lp935
I0
aI2
aasI102
(lp936
(lp937
I4
aI0
aa(lp938
I1
aI2
aasssI2005
(dp939
I65
(dp940
I83
(lp941
(lp942
I2
aI3
aa(lp943
I4
aI2
aasI131
(lp944
(lp945
I1
aI1
aa(lp946
I3
aI0
aasI100
(lp947
(lp948
I1
aI3
aa(lp949
I0
aI1
aasI134
(lp950
(lp951
I1
aI4
aa(lp952
I0
aI6
aasI6
(lp953
(lp954
I1
aI2
aa(lp955
I0
aI3
aasI7
(lp956
(lp957
I1
aI2
aa(lp958
I0
aI0
aasI40
(lp959
(lp960
I1
aI2
aa(lp961
I2
aI2
aasI9
(lp962
(lp963
I2
aI2
aa(lp964
I1
aI1
aasI55
(lp965
(lp966
I1
aI4
aa(lp967
I0
aI1
aasI76
(lp968
(lp969
I2
aI3
aa(lp970
I2
aI2
aasI79
(lp971
(lp972
I1
aI2
aa(lp973
I3
aI4
aasI16
(lp974
(lp975
I3
aI2
aa(lp976
I0
aI0
aasI81
(lp977
(lp978
I1
aI0
aa(lp979
I2
aI4
aasI107
(lp980
(lp981
I1
aI1
aa(lp982
I3
aI1
aasI54
(lp983
(lp984
I0
aI1
aa(lp985
I4
aI2
aasI87
(lp986
(lp987
I2
aI1
aa(lp988
I0
aI2
aasI91
(lp989
(lp990
I3
aI6
aa(lp991
I1
aI1
aassI131
(dp992
I65
(lp993
(lp994
I1
aI1
aa(lp995
I0
aI3
aasI107
(lp996
(lp997
I0
aI1
aa(lp998
I1
aI1
aasI100
(lp999
(lp1000
I1
aI0
aa(lp1001
I0
aI1
aasI134
(lp1002
(lp1003
I1
aI6
aa(lp1004
I1
aI1
aasI6
(lp1005
(lp1006
I2
aI1
aa(lp1007
I0
aI4
aasI7
(lp1008
(lp1009
I2
aI2
aa(lp1010
I2
aI3
aasI40
(lp1011
(lp1012
I0
aI2
aa(lp1013
I0
aI0
aasI9
(lp1014
(lp1015
I0
aI0
aa(lp1016
I2
aI2
aasI87
(lp1017
(lp1018
I1
aI1
aa(lp1019
I2
aI0
aasI76
(lp1020
(lp1021
I2
aI3
aa(lp1022
I2
aI2
aasI79
(lp1023
(lp1024
I1
aI1
aa(lp1025
I0
aI1
aasI16
(lp1026
(lp1027
I0
aI1
aa(lp1028
I1
aI2
aasI81
(lp1029
(lp1030
I1
aI5
aa(lp1031
I0
aI3
aasI83
(lp1032
(lp1033
I0
aI0
aa(lp1034
I1
aI0
aasI54
(lp1035
(lp1036
I0
aI3
aa(lp1037
I1
aI1
aasI55
(lp1038
(lp1039
I4
aI2
aa(lp1040
I2
aI1
aasI91
(lp1041
(lp1042
I1
aI0
aa(lp1043
I1
aI1
aassI100
(dp1044
I107
(lp1045
(lp1046
I2
aI0
aa(lp1047
I2
aI0
aasI65
(lp1048
(lp1049
I3
aI1
aa(lp1050
I1
aI0
aasI131
(lp1051
(lp1052
I0
aI1
aa(lp1053
I1
aI0
aasI134
(lp1054
(lp1055
I1
aI1
aa(lp1056
I1
aI2
aasI6
(lp1057
(lp1058
I1
aI0
aa(lp1059
I0
aI2
aasI7
(lp1060
(lp1061
I1
aI1
aa(lp1062
I2
aI4
aasI40
(lp1063
(lp1064
I2
aI0
aa(lp1065
I2
aI1
aasI9
(lp1066
(lp1067
I1
aI0
aa(lp1068
I2
aI0
aasI87
(lp1069
(lp1070
I0
aI0
aa(lp1071
I2
aI0
aasI76
(lp1072
(lp1073
I3
aI0
aa(lp1074
I3
aI0
aasI79
(lp1075
(lp1076
I3
aI0
aa(lp1077
I1
aI2
aasI16
(lp1078
(lp1079
I2
aI1
aa(lp1080
I0
aI2
aasI81
(lp1081
(lp1082
I3
aI1
aa(lp1083
I1
aI0
aasI83
(lp1084
(lp1085
I2
aI0
aa(lp1086
I2
aI1
aasI54
(lp1087
(lp1088
I2
aI1
aa(lp1089
I2
aI4
aasI55
(lp1090
(lp1091
I1
aI1
aa(lp1092
I1
aI2
aasI91
(lp1093
(lp1094
I1
aI1
aa(lp1095
I2
aI1
aassI6
(dp1096
I65
(lp1097
(lp1098
I2
aI1
aa(lp1099
I3
aI0
aasI131
(lp1100
(lp1101
I1
aI2
aa(lp1102
I4
aI0
aasI100
(lp1103
(lp1104
I0
aI1
aa(lp1105
I2
aI0
aasI134
(lp1106
(lp1107
I1
aI2
aa(lp1108
I1
aI1
aasI7
(lp1109
(lp1110
I2
aI1
aa(lp1111
I2
aI1
aasI40
(lp1112
(lp1113
I2
aI5
aa(lp1114
I0
aI1
aasI9
(lp1115
(lp1116
I1
aI1
aa(lp1117
I4
aI7
aasI107
(lp1118
(lp1119
I3
aI1
aa(lp1120
I3
aI2
aasI76
(lp1121
(lp1122
I2
aI2
aa(lp1123
I5
aI1
aasI79
(lp1124
(lp1125
I1
aI1
aa(lp1126
I2
aI2
aasI16
(lp1127
(lp1128
I1
aI1
aa(lp1129
I2
aI0
aasI81
(lp1130
(lp1131
I1
aI3
aa(lp1132
I1
aI2
aasI83
(lp1133
(lp1134
I1
aI1
aa(lp1135
I0
aI1
aasI54
(lp1136
(lp1137
I1
aI2
aa(lp1138
I5
aI1
aasI87
(lp1139
(lp1140
I1
aI1
aa(lp1141
I2
aI1
aasI55
(lp1142
(lp1143
I0
aI0
aa(lp1144
I2
aI2
aasI91
(lp1145
(lp1146
I4
aI1
aa(lp1147
I2
aI1
aassI134
(dp1148
I107
(lp1149
(lp1150
I2
aI0
aa(lp1151
I5
aI3
aasI65
(lp1152
(lp1153
I4
aI1
aa(lp1154
I6
aI0
aasI131
(lp1155
(lp1156
I6
aI1
aa(lp1157
I1
aI1
aasI100
(lp1158
(lp1159
I1
aI1
aa(lp1160
I2
aI1
aasI6
(lp1161
(lp1162
I2
aI1
aa(lp1163
I1
aI1
aasI7
(lp1164
(lp1165
I3
aI2
aa(lp1166
I1
aI0
aasI40
(lp1167
(lp1168
I1
aI3
aa(lp1169
I3
aI0
aasI9
(lp1170
(lp1171
I1
aI2
aa(lp1172
I0
aI0
aasI55
(lp1173
(lp1174
I0
aI0
aa(lp1175
I5
aI0
aasI76
(lp1176
(lp1177
I5
aI1
aa(lp1178
I0
aI2
aasI79
(lp1179
(lp1180
I6
aI2
aa(lp1181
I1
aI3
aasI16
(lp1182
(lp1183
I1
aI1
aa(lp1184
I0
aI0
aasI81
(lp1185
(lp1186
I2
aI0
aa(lp1187
I4
aI2
aasI83
(lp1188
(lp1189
I5
aI2
aa(lp1190
I1
aI0
aasI54
(lp1191
(lp1192
I2
aI1
aa(lp1193
I0
aI3
aasI87
(lp1194
(lp1195
I1
aI2
aa(lp1196
I2
aI0
aasI91
(lp1197
(lp1198
I4
aI1
aa(lp1199
I1
aI0
aassI7
(dp1200
I65
(lp1201
(lp1202
I2
aI1
aa(lp1203
I0
aI0
aasI131
(lp1204
(lp1205
I2
aI2
aa(lp1206
I3
aI2
aasI100
(lp1207
(lp1208
I1
aI1
aa(lp1209
I4
aI2
aasI6
(lp1210
(lp1211
I1
aI2
aa(lp1212
I1
aI2
aasI134
(lp1213
(lp1214
I2
aI3
aa(lp1215
I0
aI1
aasI40
(lp1216
(lp1217
I1
aI2
aa(lp1218
I3
aI3
aasI9
(lp1219
(lp1220
I1
aI2
aa(lp1221
I0
aI0
aasI107
(lp1222
(lp1223
I1
aI1
aa(lp1224
I2
aI0
aasI76
(lp1225
(lp1226
I3
aI3
aa(lp1227
I2
aI1
aasI79
(lp1228
(lp1229
I2
aI1
aa(lp1230
I2
aI1
aasI16
(lp1231
(lp1232
I0
aI0
aa(lp1233
I0
aI0
aasI81
(lp1234
(lp1235
I1
aI1
aa(lp1236
I1
aI1
aasI83
(lp1237
(lp1238
I2
aI0
aa(lp1239
I0
aI1
aasI54
(lp1240
(lp1241
I2
aI0
aa(lp1242
I0
aI0
aasI87
(lp1243
(lp1244
I2
aI1
aa(lp1245
I1
aI2
aasI55
(lp1246
(lp1247
I0
aI2
aa(lp1248
I2
aI1
aasI91
(lp1249
(lp1250
I0
aI2
aa(lp1251
I1
aI1
aassI40
(dp1252
I65
(lp1253
(lp1254
I2
aI1
aa(lp1255
I2
aI2
aasI83
(lp1256
(lp1257
I2
aI1
aa(lp1258
I2
aI0
aasI131
(lp1259
(lp1260
I2
aI0
aa(lp1261
I0
aI0
aasI100
(lp1262
(lp1263
I0
aI2
aa(lp1264
I1
aI2
aasI134
(lp1265
(lp1266
I3
aI1
aa(lp1267
I0
aI3
aasI6
(lp1268
(lp1269
I5
aI2
aa(lp1270
I1
aI0
aasI7
(lp1271
(lp1272
I2
aI1
aa(lp1273
I3
aI3
aasI9
(lp1274
(lp1275
I1
aI1
aa(lp1276
I3
aI0
aasI87
(lp1277
(lp1278
I3
aI0
aa(lp1279
I3
aI1
aasI76
(lp1280
(lp1281
I2
aI1
aa(lp1282
I1
aI1
aasI79
(lp1283
(lp1284
I2
aI1
aa(lp1285
I2
aI1
aasI16
(lp1286
(lp1287
I0
aI0
aa(lp1288
I3
aI1
aasI81
(lp1289
(lp1290
I2
aI1
aa(lp1291
I2
aI2
aasI107
(lp1292
(lp1293
I4
aI0
aa(lp1294
I3
aI1
aasI54
(lp1295
(lp1296
I3
aI0
aa(lp1297
I0
aI0
aasI55
(lp1298
(lp1299
I1
aI0
aa(lp1300
I1
aI1
aasI91
(lp1301
(lp1302
I1
aI0
aa(lp1303
I5
aI2
aassI9
(dp1304
I65
(lp1305
(lp1306
I2
aI2
aa(lp1307
I1
aI1
aasI83
(lp1308
(lp1309
I1
aI0
aa(lp1310
I3
aI1
aasI131
(lp1311
(lp1312
I0
aI0
aa(lp1313
I2
aI2
aasI100
(lp1314
(lp1315
I0
aI1
aa(lp1316
I0
aI2
aasI134
(lp1317
(lp1318
I2
aI1
aa(lp1319
I0
aI0
aasI6
(lp1320
(lp1321
I1
aI1
aa(lp1322
I7
aI4
aasI7
(lp1323
(lp1324
I2
aI1
aa(lp1325
I0
aI0
aasI40
(lp1326
(lp1327
I1
aI1
aa(lp1328
I0
aI3
aasI55
(lp1329
(lp1330
I2
aI0
aa(lp1331
I2
aI1
aasI76
(lp1332
(lp1333
I2
aI1
aa(lp1334
I2
aI0
aasI79
(lp1335
(lp1336
I1
aI1
aa(lp1337
I2
aI0
aasI16
(lp1338
(lp1339
I0
aI2
aa(lp1340
I3
aI2
aasI81
(lp1341
(lp1342
I1
aI0
aa(lp1343
I0
aI1
aasI107
(lp1344
(lp1345
I3
aI0
aa(lp1346
I1
aI1
aasI54
(lp1347
(lp1348
I0
aI0
aa(lp1349
I2
aI1
aasI87
(lp1350
(lp1351
I1
aI1
aa(lp1352
I0
aI0
aasI91
(lp1353
(lp1354
I1
aI0
aa(lp1355
I2
aI0
aassI107
(dp1356
I65
(lp1357
(lp1358
I1
aI1
aa(lp1359
I1
aI3
aasI131
(lp1360
(lp1361
I1
aI0
aa(lp1362
I1
aI1
aasI100
(lp1363
(lp1364
I0
aI2
aa(lp1365
I0
aI2
aasI134
(lp1366
(lp1367
I0
aI2
aa(lp1368
I3
aI5
aasI6
(lp1369
(lp1370
I1
aI3
aa(lp1371
I2
aI3
aasI7
(lp1372
(lp1373
I1
aI1
aa(lp1374
I0
aI2
aasI40
(lp1375
(lp1376
I0
aI4
aa(lp1377
I1
aI3
aasI9
(lp1378
(lp1379
I0
aI3
aa(lp1380
I1
aI1
aasI55
(lp1381
(lp1382
I1
aI1
aa(lp1383
I0
aI0
aasI76
(lp1384
(lp1385
I3
aI5
aa(lp1386
I2
aI2
aasI79
(lp1387
(lp1388
I1
aI0
aa(lp1389
I0
aI3
aasI16
(lp1390
(lp1391
I1
aI1
aa(lp1392
I1
aI0
aasI81
(lp1393
(lp1394
I1
aI1
aa(lp1395
I0
aI0
aasI83
(lp1396
(lp1397
I1
aI1
aa(lp1398
I2
aI0
aasI54
(lp1399
(lp1400
I2
aI3
aa(lp1401
I2
aI1
aasI87
(lp1402
(lp1403
I1
aI2
aa(lp1404
I1
aI1
aasI91
(lp1405
(lp1406
I0
aI1
aa(lp1407
I2
aI5
aassI76
(dp1408
I65
(lp1409
(lp1410
I3
aI2
aa(lp1411
I2
aI2
aasI131
(lp1412
(lp1413
I3
aI2
aa(lp1414
I2
aI2
aasI100
(lp1415
(lp1416
I0
aI3
aa(lp1417
I0
aI3
aasI6
(lp1418
(lp1419
I2
aI2
aa(lp1420
I1
aI5
aasI134
(lp1421
(lp1422
I1
aI5
aa(lp1423
I2
aI0
aasI7
(lp1424
(lp1425
I3
aI3
aa(lp1426
I1
aI2
aasI40
(lp1427
(lp1428
I1
aI2
aa(lp1429
I1
aI1
aasI9
(lp1430
(lp1431
I1
aI2
aa(lp1432
I0
aI2
aasI107
(lp1433
(lp1434
I5
aI3
aa(lp1435
I2
aI2
aasI79
(lp1436
(lp1437
I1
aI3
aa(lp1438
I2
aI3
aasI16
(lp1439
(lp1440
I0
aI1
aa(lp1441
I1
aI1
aasI81
(lp1442
(lp1443
I0
aI2
aa(lp1444
I2
aI0
aasI83
(lp1445
(lp1446
I0
aI0
aa(lp1447
I2
aI0
aasI54
(lp1448
(lp1449
I0
aI3
aa(lp1450
I0
aI2
aasI87
(lp1451
(lp1452
I1
aI4
aa(lp1453
I3
aI0
aasI55
(lp1454
(lp1455
I1
aI5
aa(lp1456
I1
aI0
aasI91
(lp1457
(lp1458
I1
aI2
aa(lp1459
I2
aI2
aassI79
(dp1460
I65
(lp1461
(lp1462
I2
aI1
aa(lp1463
I4
aI3
aasI131
(lp1464
(lp1465
I1
aI1
aa(lp1466
I1
aI0
aasI100
(lp1467
(lp1468
I0
aI3
aa(lp1469
I2
aI1
aasI6
(lp1470
(lp1471
I1
aI1
aa(lp1472
I2
aI2
aasI134
(lp1473
(lp1474
I2
aI6
aa(lp1475
I3
aI1
aasI7
(lp1476
(lp1477
I1
aI2
aa(lp1478
I1
aI2
aasI40
(lp1479
(lp1480
I1
aI2
aa(lp1481
I1
aI2
aasI9
(lp1482
(lp1483
I1
aI1
aa(lp1484
I0
aI2
aasI107
(lp1485
(lp1486
I0
aI1
aa(lp1487
I3
aI0
aasI76
(lp1488
(lp1489
I3
aI1
aa(lp1490
I3
aI2
aasI16
(lp1491
(lp1492
I0
aI1
aa(lp1493
I0
aI1
aasI81
(lp1494
(lp1495
I1
aI4
aa(lp1496
I3
aI0
aasI83
(lp1497
(lp1498
I2
aI3
aa(lp1499
I0
aI0
aasI54
(lp1500
(lp1501
I1
aI1
aa(lp1502
I2
aI1
aasI55
(lp1503
(lp1504
I1
aI1
aa(lp1505
I1
aI1
aasI87
(lp1506
(lp1507
I1
aI0
aa(lp1508
I5
aI2
aasI91
(lp1509
(lp1510
I0
aI1
aa(lp1511
I0
aI1
aassI16
(dp1512
I65
(lp1513
(lp1514
I2
aI3
aa(lp1515
I0
aI0
aasI131
(lp1516
(lp1517
I1
aI0
aa(lp1518
I2
aI1
aasI100
(lp1519
(lp1520
I1
aI2
aa(lp1521
I2
aI0
aasI6
(lp1522
(lp1523
I1
aI1
aa(lp1524
I0
aI2
aasI134
(lp1525
(lp1526
I1
aI1
aa(lp1527
I0
aI0
aasI7
(lp1528
(lp1529
I0
aI0
aa(lp1530
I0
aI0
aasI40
(lp1531
(lp1532
I0
aI0
aa(lp1533
I1
aI3
aasI9
(lp1534
(lp1535
I2
aI0
aa(lp1536
I2
aI3
aasI107
(lp1537
(lp1538
I1
aI1
aa(lp1539
I0
aI1
aasI76
(lp1540
(lp1541
I1
aI0
aa(lp1542
I1
aI1
aasI79
(lp1543
(lp1544
I1
aI0
aa(lp1545
I1
aI0
aasI81
(lp1546
(lp1547
I2
aI1
aa(lp1548
I2
aI1
aasI83
(lp1549
(lp1550
I1
aI1
aa(lp1551
I1
aI2
aasI54
(lp1552
(lp1553
I3
aI3
aa(lp1554
I0
aI2
aasI87
(lp1555
(lp1556
I1
aI1
aa(lp1557
I1
aI1
aasI55
(lp1558
(lp1559
I2
aI2
aa(lp1560
I3
aI3
aasI91
(lp1561
(lp1562
I1
aI1
aa(lp1563
I0
aI2
aassI81
(dp1564
I107
(lp1565
(lp1566
I1
aI1
aa(lp1567
I0
aI0
aasI65
(lp1568
(lp1569
I0
aI1
aa(lp1570
I4
aI2
aasI131
(lp1571
(lp1572
I5
aI1
aa(lp1573
I3
aI0
aasI100
(lp1574
(lp1575
I1
aI3
aa(lp1576
I0
aI1
aasI6
(lp1577
(lp1578
I3
aI1
aa(lp1579
I2
aI1
aasI134
(lp1580
(lp1581
I0
aI2
aa(lp1582
I2
aI4
aasI7
(lp1583
(lp1584
I1
aI1
aa(lp1585
I1
aI1
aasI40
(lp1586
(lp1587
I1
aI2
aa(lp1588
I2
aI2
aasI9
(lp1589
(lp1590
I0
aI1
aa(lp1591
I1
aI0
aasI55
(lp1592
(lp1593
I2
aI2
aa(lp1594
I0
aI0
aasI76
(lp1595
(lp1596
I2
aI0
aa(lp1597
I0
aI2
aasI79
(lp1598
(lp1599
I4
aI1
aa(lp1600
I0
aI3
aasI16
(lp1601
(lp1602
I1
aI2
aa(lp1603
I1
aI2
aasI83
(lp1604
(lp1605
I0
aI2
aa(lp1606
I1
aI1
aasI54
(lp1607
(lp1608
I1
aI3
aa(lp1609
I2
aI2
aasI87
(lp1610
(lp1611
I0
aI1
aa(lp1612
I3
aI0
aasI91
(lp1613
(lp1614
I2
aI2
aa(lp1615
I0
aI0
aassI83
(dp1616
I65
(lp1617
(lp1618
I3
aI2
aa(lp1619
I2
aI4
aasI131
(lp1620
(lp1621
I0
aI0
aa(lp1622
I0
aI1
aasI100
(lp1623
(lp1624
I0
aI2
aa(lp1625
I1
aI2
aasI6
(lp1626
(lp1627
I1
aI1
aa(lp1628
I1
aI0
aasI134
(lp1629
(lp1630
I2
aI5
aa(lp1631
I0
aI1
aasI7
(lp1632
(lp1633
I0
aI2
aa(lp1634
I1
aI0
aasI40
(lp1635
(lp1636
I1
aI2
aa(lp1637
I0
aI2
aasI9
(lp1638
(lp1639
I0
aI1
aa(lp1640
I1
aI3
aasI55
(lp1641
(lp1642
I4
aI1
aa(lp1643
I1
aI0
aasI76
(lp1644
(lp1645
I0
aI0
aa(lp1646
I0
aI2
aasI79
(lp1647
(lp1648
I3
aI2
aa(lp1649
I0
aI0
aasI16
(lp1650
(lp1651
I1
aI1
aa(lp1652
I2
aI1
aasI81
(lp1653
(lp1654
I2
aI0
aa(lp1655
I1
aI1
aasI107
(lp1656
(lp1657
I1
aI1
aa(lp1658
I0
aI2
aasI54
(lp1659
(lp1660
I3
aI0
aa(lp1661
I0
aI1
aasI87
(lp1662
(lp1663
I0
aI2
aa(lp1664
I0
aI2
aasI91
(lp1665
(lp1666
I0
aI3
aa(lp1667
I1
aI0
aassI54
(dp1668
I65
(lp1669
(lp1670
I1
aI0
aa(lp1671
I2
aI4
aasI131
(lp1672
(lp1673
I3
aI0
aa(lp1674
I1
aI1
aasI100
(lp1675
(lp1676
I1
aI2
aa(lp1677
I4
aI2
aasI6
(lp1678
(lp1679
I2
aI1
aa(lp1680
I1
aI5
aasI134
(lp1681
(lp1682
I1
aI2
aa(lp1683
I3
aI0
aasI7
(lp1684
(lp1685
I0
aI2
aa(lp1686
I0
aI0
aasI40
(lp1687
(lp1688
I0
aI3
aa(lp1689
I0
aI0
aasI9
(lp1690
(lp1691
I0
aI0
aa(lp1692
I1
aI2
aasI107
(lp1693
(lp1694
I3
aI2
aa(lp1695
I1
aI2
aasI76
(lp1696
(lp1697
I3
aI0
aa(lp1698
I2
aI0
aasI79
(lp1699
(lp1700
I1
aI1
aa(lp1701
I1
aI2
aasI16
(lp1702
(lp1703
I3
aI3
aa(lp1704
I2
aI0
aasI81
(lp1705
(lp1706
I3
aI1
aa(lp1707
I2
aI2
aasI83
(lp1708
(lp1709
I0
aI3
aa(lp1710
I1
aI0
aasI55
(lp1711
(lp1712
I2
aI2
aa(lp1713
I1
aI1
aasI87
(lp1714
(lp1715
I2
aI2
aa(lp1716
I2
aI2
aasI91
(lp1717
(lp1718
I2
aI0
aa(lp1719
I1
aI1
aassI87
(dp1720
I65
(lp1721
(lp1722
I1
aI2
aa(lp1723
I2
aI0
aasI131
(lp1724
(lp1725
I1
aI1
aa(lp1726
I0
aI2
aasI100
(lp1727
(lp1728
I0
aI0
aa(lp1729
I0
aI2
aasI6
(lp1730
(lp1731
I1
aI1
aa(lp1732
I1
aI2
aasI134
(lp1733
(lp1734
I2
aI1
aa(lp1735
I0
aI2
aasI7
(lp1736
(lp1737
I1
aI2
aa(lp1738
I2
aI1
aasI40
(lp1739
(lp1740
I0
aI3
aa(lp1741
I1
aI3
aasI9
(lp1742
(lp1743
I1
aI1
aa(lp1744
I0
aI0
aasI107
(lp1745
(lp1746
I2
aI1
aa(lp1747
I1
aI1
aasI76
(lp1748
(lp1749
I4
aI1
aa(lp1750
I0
aI3
aasI79
(lp1751
(lp1752
I0
aI1
aa(lp1753
I2
aI5
aasI16
(lp1754
(lp1755
I1
aI1
aa(lp1756
I1
aI1
aasI81
(lp1757
(lp1758
I1
aI0
aa(lp1759
I0
aI3
aasI83
(lp1760
(lp1761
I2
aI0
aa(lp1762
I2
aI0
aasI54
(lp1763
(lp1764
I2
aI2
aa(lp1765
I2
aI2
aasI55
(lp1766
(lp1767
I1
aI1
aa(lp1768
I2
aI2
aasI91
(lp1769
(lp1770
I4
aI3
aa(lp1771
I2
aI0
aassI55
(dp1772
I65
(lp1773
(lp1774
I4
aI1
aa(lp1775
I1
aI0
aasI131
(lp1776
(lp1777
I2
aI4
aa(lp1778
I1
aI2
aasI100
(lp1779
(lp1780
I1
aI1
aa(lp1781
I2
aI1
aasI6
(lp1782
(lp1783
I0
aI0
aa(lp1784
I2
aI2
aasI134
(lp1785
(lp1786
I0
aI0
aa(lp1787
I0
aI5
aasI7
(lp1788
(lp1789
I2
aI0
aa(lp1790
I1
aI2
aasI40
(lp1791
(lp1792
I0
aI1
aa(lp1793
I1
aI1
aasI9
(lp1794
(lp1795
I0
aI2
aa(lp1796
I1
aI2
aasI107
(lp1797
(lp1798
I1
aI1
aa(lp1799
I0
aI0
aasI76
(lp1800
(lp1801
I5
aI1
aa(lp1802
I0
aI1
aasI79
(lp1803
(lp1804
I1
aI1
aa(lp1805
I1
aI1
aasI16
(lp1806
(lp1807
I2
aI2
aa(lp1808
I3
aI3
aasI81
(lp1809
(lp1810
I2
aI2
aa(lp1811
I0
aI0
aasI83
(lp1812
(lp1813
I1
aI4
aa(lp1814
I0
aI1
aasI54
(lp1815
(lp1816
I2
aI2
aa(lp1817
I1
aI1
aasI87
(lp1818
(lp1819
I1
aI1
aa(lp1820
I2
aI2
aasI91
(lp1821
(lp1822
I2
aI0
aa(lp1823
I1
aI0
aassI91
(dp1824
I65
(lp1825
(lp1826
I6
aI3
aa(lp1827
I1
aI1
aasI131
(lp1828
(lp1829
I0
aI1
aa(lp1830
I1
aI1
aasI100
(lp1831
(lp1832
I1
aI1
aa(lp1833
I1
aI2
aasI134
(lp1834
(lp1835
I1
aI4
aa(lp1836
I0
aI1
aasI6
(lp1837
(lp1838
I1
aI4
aa(lp1839
I1
aI2
aasI7
(lp1840
(lp1841
I2
aI0
aa(lp1842
I1
aI1
aasI40
(lp1843
(lp1844
I0
aI1
aa(lp1845
I2
aI5
aasI9
(lp1846
(lp1847
I0
aI1
aa(lp1848
I0
aI2
aasI107
(lp1849
(lp1850
I1
aI0
aa(lp1851
I5
aI2
aasI76
(lp1852
(lp1853
I2
aI1
aa(lp1854
I2
aI2
aasI79
(lp1855
(lp1856
I1
aI0
aa(lp1857
I1
aI0
aasI16
(lp1858
(lp1859
I1
aI1
aa(lp1860
I2
aI0
aasI81
(lp1861
(lp1862
I2
aI2
aa(lp1863
I0
aI0
aasI83
(lp1864
(lp1865
I3
aI0
aa(lp1866
I0
aI1
aasI54
(lp1867
(lp1868
I0
aI2
aa(lp1869
I1
aI1
aasI55
(lp1870
(lp1871
I0
aI2
aa(lp1872
I0
aI1
aasI87
(lp1873
(lp1874
I3
aI4
aa(lp1875
I0
aI2
aasssI2006
(dp1876
I129
(dp1877
I131
(lp1878
(lp1879
I0
aI1
aa(lp1880
I1
aI3
aasI100
(lp1881
(lp1882
I2
aI1
aa(lp1883
I3
aI0
aasI6
(lp1884
(lp1885
I1
aI3
aa(lp1886
I4
aI1
aasI134
(lp1887
(lp1888
I0
aI6
aa(lp1889
I0
aI3
aasI7
(lp1890
(lp1891
I1
aI1
aa(lp1892
I2
aI0
aasI40
(lp1893
(lp1894
I1
aI2
aa(lp1895
I0
aI0
aasI9
(lp1896
(lp1897
I1
aI2
aa(lp1898
I2
aI1
aasI55
(lp1899
(lp1900
I2
aI0
aa(lp1901
I2
aI0
aasI79
(lp1902
(lp1903
I1
aI1
aa(lp1904
I0
aI2
aasI16
(lp1905
(lp1906
I0
aI1
aa(lp1907
I2
aI3
aasI81
(lp1908
(lp1909
I1
aI2
aa(lp1910
I0
aI1
aasI83
(lp1911
(lp1912
I2
aI1
aa(lp1913
I3
aI1
aasI54
(lp1914
(lp1915
I3
aI3
aa(lp1916
I1
aI3
aasI23
(lp1917
(lp1918
I1
aI2
aa(lp1919
I2
aI2
aasI87
(lp1920
(lp1921
I2
aI0
aa(lp1922
I2
aI0
aasI91
(lp1923
(lp1924
I4
aI3
aa(lp1925
I3
aI0
aasI93
(lp1926
(lp1927
I0
aI1
aa(lp1928
I0
aI0
aassI131
(dp1929
I129
(lp1930
(lp1931
I1
aI0
aa(lp1932
I3
aI1
aasI100
(lp1933
(lp1934
I1
aI0
aa(lp1935
I0
aI1
aasI134
(lp1936
(lp1937
I1
aI2
aa(lp1938
I0
aI2
aasI6
(lp1939
(lp1940
I1
aI1
aa(lp1941
I3
aI2
aasI7
(lp1942
(lp1943
I0
aI1
aa(lp1944
I0
aI2
aasI40
(lp1945
(lp1946
I1
aI0
aa(lp1947
I1
aI2
aasI9
(lp1948
(lp1949
I0
aI2
aa(lp1950
I2
aI2
aasI87
(lp1951
(lp1952
I1
aI3
aa(lp1953
I1
aI0
aasI79
(lp1954
(lp1955
I1
aI1
aa(lp1956
I1
aI1
aasI16
(lp1957
(lp1958
I1
aI1
aa(lp1959
I0
aI0
aasI81
(lp1960
(lp1961
I2
aI1
aa(lp1962
I3
aI2
aasI83
(lp1963
(lp1964
I0
aI0
aa(lp1965
I2
aI3
aasI54
(lp1966
(lp1967
I0
aI0
aa(lp1968
I1
aI2
aasI55
(lp1969
(lp1970
I1
aI2
aa(lp1971
I2
aI2
aasI23
(lp1972
(lp1973
I1
aI2
aa(lp1974
I2
aI2
aasI91
(lp1975
(lp1976
I0
aI0
aa(lp1977
I2
aI2
aasI93
(lp1978
(lp1979
I0
aI0
aa(lp1980
I2
aI3
aassI100
(dp1981
I129
(lp1982
(lp1983
I1
aI2
aa(lp1984
I0
aI3
aasI131
(lp1985
(lp1986
I0
aI1
aa(lp1987
I1
aI0
aasI6
(lp1988
(lp1989
I2
aI1
aa(lp1990
I0
aI0
aasI134
(lp1991
(lp1992
I1
aI1
aa(lp1993
I2
aI0
aasI7
(lp1994
(lp1995
I0
aI1
aa(lp1996
I3
aI0
aasI40
(lp1997
(lp1998
I1
aI2
aa(lp1999
I2
aI1
aasI9
(lp2000
(lp2001
I1
aI2
aa(lp2002
I2
aI0
aasI87
(lp2003
(lp2004
I1
aI1
aa(lp2005
I1
aI0
aasI79
(lp2006
(lp2007
I0
aI0
aa(lp2008
I2
aI0
aasI16
(lp2009
(lp2010
I0
aI2
aa(lp2011
I2
aI4
aasI81
(lp2012
(lp2013
I0
aI0
aa(lp2014
I2
aI2
aasI83
(lp2015
(lp2016
I1
aI1
aa(lp2017
I1
aI1
aasI54
(lp2018
(lp2019
I1
aI1
aa(lp2020
I1
aI2
aasI55
(lp2021
(lp2022
I0
aI0
aa(lp2023
I0
aI0
aasI23
(lp2024
(lp2025
I3
aI3
aa(lp2026
I4
aI0
aasI91
(lp2027
(lp2028
I2
aI2
aa(lp2029
I3
aI1
aasI93
(lp2030
(lp2031
I2
aI2
aa(lp2032
I1
aI1
aassI134
(dp2033
I129
(lp2034
(lp2035
I6
aI0
aa(lp2036
I3
aI0
aasI131
(lp2037
(lp2038
I2
aI1
aa(lp2039
I2
aI0
aasI100
(lp2040
(lp2041
I1
aI1
aa(lp2042
I0
aI2
aasI6
(lp2043
(lp2044
I2
aI1
aa(lp2045
I2
aI0
aasI7
(lp2046
(lp2047
I1
aI3
aa(lp2048
I2
aI0
aasI40
(lp2049
(lp2050
I3
aI1
aa(lp2051
I1
aI1
aasI9
(lp2052
(lp2053
I0
aI2
aa(lp2054
I0
aI2
aasI55
(lp2055
(lp2056
I4
aI2
aa(lp2057
I3
aI0
aasI79
(lp2058
(lp2059
I2
aI1
aa(lp2060
I1
aI0
aasI16
(lp2061
(lp2062
I2
aI3
aa(lp2063
I1
aI4
aasI81
(lp2064
(lp2065
I6
aI1
aa(lp2066
I2
aI0
aasI83
(lp2067
(lp2068
I3
aI0
aa(lp2069
I2
aI3
aasI54
(lp2070
(lp2071
I3
aI1
aa(lp2072
I4
aI1
aasI87
(lp2073
(lp2074
I3
aI0
aa(lp2075
I2
aI2
aasI23
(lp2076
(lp2077
I2
aI2
aa(lp2078
I3
aI1
aasI91
(lp2079
(lp2080
I6
aI2
aa(lp2081
I1
aI2
aasI93
(lp2082
(lp2083
I1
aI1
aa(lp2084
I0
aI0
aassI6
(dp2085
I129
(lp2086
(lp2087
I3
aI1
aa(lp2088
I1
aI4
aasI131
(lp2089
(lp2090
I1
aI1
aa(lp2091
I2
aI3
aasI100
(lp2092
(lp2093
I1
aI2
aa(lp2094
I0
aI0
aasI134
(lp2095
(lp2096
I1
aI2
aa(lp2097
I0
aI2
aasI7
(lp2098
(lp2099
I2
aI1
aa(lp2100
I2
aI1
aasI40
(lp2101
(lp2102
I2
aI3
aa(lp2103
I1
aI2
aasI9
(lp2104
(lp2105
I3
aI1
aa(lp2106
I1
aI0
aasI23
(lp2107
(lp2108
I3
aI0
aa(lp2109
I3
aI2
aasI79
(lp2110
(lp2111
I2
aI3
aa(lp2112
I2
aI0
aasI16
(lp2113
(lp2114
I0
aI3
aa(lp2115
I3
aI1
aasI81
(lp2116
(lp2117
I1
aI1
aa(lp2118
I3
aI1
aasI83
(lp2119
(lp2120
I0
aI0
aa(lp2121
I1
aI2
aasI54
(lp2122
(lp2123
I2
aI1
aa(lp2124
I3
aI2
aasI55
(lp2125
(lp2126
I1
aI1
aa(lp2127
I0
aI1
aasI87
(lp2128
(lp2129
I2
aI0
aa(lp2130
I1
aI0
aasI91
(lp2131
(lp2132
I1
aI3
aa(lp2133
I2
aI2
aasI93
(lp2134
(lp2135
I3
aI1
aa(lp2136
I1
aI2
aassI7
(dp2137
I129
(lp2138
(lp2139
I1
aI1
aa(lp2140
I0
aI2
aasI131
(lp2141
(lp2142
I1
aI0
aa(lp2143
I2
aI0
aasI100
(lp2144
(lp2145
I1
aI0
aa(lp2146
I0
aI3
aasI6
(lp2147
(lp2148
I1
aI2
aa(lp2149
I1
aI2
aasI134
(lp2150
(lp2151
I3
aI1
aa(lp2152
I0
aI2
aasI40
(lp2153
(lp2154
I0
aI2
aa(lp2155
I3
aI2
aasI9
(lp2156
(lp2157
I1
aI3
aa(lp2158
I2
aI0
aasI87
(lp2159
(lp2160
I0
aI1
aa(lp2161
I1
aI0
aasI79
(lp2162
(lp2163
I1
aI1
aa(lp2164
I0
aI0
aasI16
(lp2165
(lp2166
I3
aI1
aa(lp2167
I0
aI1
aasI81
(lp2168
(lp2169
I1
aI1
aa(lp2170
I0
aI1
aasI83
(lp2171
(lp2172
I1
aI1
aa(lp2173
I0
aI1
aasI54
(lp2174
(lp2175
I1
aI2
aa(lp2176
I1
aI0
aasI55
(lp2177
(lp2178
I2
aI2
aa(lp2179
I2
aI4
aasI23
(lp2180
(lp2181
I0
aI0
aa(lp2182
I4
aI1
aasI91
(lp2183
(lp2184
I1
aI1
aa(lp2185
I2
aI0
aasI93
(lp2186
(lp2187
I3
aI2
aa(lp2188
I2
aI3
aassI40
(dp2189
I129
(lp2190
(lp2191
I2
aI1
aa(lp2192
I0
aI0
aasI131
(lp2193
(lp2194
I0
aI1
aa(lp2195
I2
aI1
aasI100
(lp2196
(lp2197
I2
aI1
aa(lp2198
I1
aI2
aasI6
(lp2199
(lp2200
I3
aI2
aa(lp2201
I2
aI1
aasI134
(lp2202
(lp2203
I1
aI3
aa(lp2204
I1
aI1
aasI7
(lp2205
(lp2206
I2
aI0
aa(lp2207
I2
aI3
aasI9
(lp2208
(lp2209
I2
aI2
aa(lp2210
I2
aI0
aasI55
(lp2211
(lp2212
I0
aI1
aa(lp2213
I2
aI1
aasI79
(lp2214
(lp2215
I0
aI0
aa(lp2216
I0
aI3
aasI16
(lp2217
(lp2218
I2
aI1
aa(lp2219
I0
aI2
aasI81
(lp2220
(lp2221
I4
aI0
aa(lp2222
I5
aI2
aasI83
(lp2223
(lp2224
I1
aI2
aa(lp2225
I1
aI0
aasI54
(lp2226
(lp2227
I4
aI2
aa(lp2228
I3
aI2
aasI23
(lp2229
(lp2230
I2
aI1
aa(lp2231
I0
aI1
aasI87
(lp2232
(lp2233
I1
aI1
aa(lp2234
I1
aI1
aasI91
(lp2235
(lp2236
I2
aI0
aa(lp2237
I0
aI1
aasI93
(lp2238
(lp2239
I2
aI1
aa(lp2240
I3
aI0
aassI9
(dp2241
I129
(lp2242
(lp2243
I2
aI1
aa(lp2244
I1
aI2
aasI131
(lp2245
(lp2246
I2
aI0
aa(lp2247
I2
aI2
aasI100
(lp2248
(lp2249
I2
aI1
aa(lp2250
I0
aI2
aasI134
(lp2251
(lp2252
I2
aI0
aa(lp2253
I2
aI0
aasI6
(lp2254
(lp2255
I1
aI3
aa(lp2256
I0
aI1
aasI7
(lp2257
(lp2258
I3
aI1
aa(lp2259
I0
aI2
aasI40
(lp2260
(lp2261
I2
aI2
aa(lp2262
I0
aI2
aasI55
(lp2263
(lp2264
I2
aI1
aa(lp2265
I1
aI1
aasI79
(lp2266
(lp2267
I0
aI0
aa(lp2268
I1
aI0
aasI16
(lp2269
(lp2270
I0
aI3
aa(lp2271
I1
aI0
aasI81
(lp2272
(lp2273
I4
aI0
aa(lp2274
I3
aI0
aasI83
(lp2275
(lp2276
I1
aI0
aa(lp2277
I2
aI1
aasI54
(lp2278
(lp2279
I0
aI2
aa(lp2280
I2
aI0
aasI23
(lp2281
(lp2282
I1
aI0
aa(lp2283
I2
aI1
aasI87
(lp2284
(lp2285
I2
aI0
aa(lp2286
I2
aI0
aasI91
(lp2287
(lp2288
I1
aI1
aa(lp2289
I3
aI1
aasI93
(lp2290
(lp2291
I4
aI2
aa(lp2292
I2
aI0
aassI87
(dp2293
I129
(lp2294
(lp2295
I0
aI2
aa(lp2296
I0
aI2
aasI131
(lp2297
(lp2298
I3
aI1
aa(lp2299
I0
aI1
aasI100
(lp2300
(lp2301
I1
aI1
aa(lp2302
I0
aI1
aasI6
(lp2303
(lp2304
I0
aI2
aa(lp2305
I0
aI1
aasI134
(lp2306
(lp2307
I0
aI3
aa(lp2308
I2
aI2
aasI7
(lp2309
(lp2310
I1
aI0
aa(lp2311
I0
aI1
aasI40
(lp2312
(lp2313
I1
aI1
aa(lp2314
I1
aI1
aasI9
(lp2315
(lp2316
I0
aI2
aa(lp2317
I0
aI2
aasI55
(lp2318
(lp2319
I0
aI1
aa(lp2320
I0
aI1
aasI79
(lp2321
(lp2322
I0
aI1
aa(lp2323
I0
aI0
aasI16
(lp2324
(lp2325
I0
aI1
aa(lp2326
I0
aI1
aasI81
(lp2327
(lp2328
I1
aI1
aa(lp2329
I0
aI3
aasI83
(lp2330
(lp2331
I1
aI0
aa(lp2332
I2
aI0
aasI54
(lp2333
(lp2334
I1
aI2
aa(lp2335
I3
aI1
aasI23
(lp2336
(lp2337
I2
aI4
aa(lp2338
I0
aI0
aasI91
(lp2339
(lp2340
I0
aI1
aa(lp2341
I1
aI1
aasI93
(lp2342
(lp2343
I2
aI0
aa(lp2344
I1
aI3
aassI79
(dp2345
I129
(lp2346
(lp2347
I1
aI1
aa(lp2348
I2
aI0
aasI131
(lp2349
(lp2350
I1
aI1
aa(lp2351
I1
aI1
aasI100
(lp2352
(lp2353
I0
aI0
aa(lp2354
I0
aI2
aasI6
(lp2355
(lp2356
I3
aI2
aa(lp2357
I0
aI2
aasI134
(lp2358
(lp2359
I1
aI2
aa(lp2360
I0
aI1
aasI7
(lp2361
(lp2362
I1
aI1
aa(lp2363
I0
aI0
aasI40
(lp2364
(lp2365
I0
aI0
aa(lp2366
I3
aI0
aasI9
(lp2367
(lp2368
I0
aI0
aa(lp2369
I0
aI1
aasI23
(lp2370
(lp2371
I1
aI1
aa(lp2372
I1
aI0
aasI16
(lp2373
(lp2374
I3
aI0
aa(lp2375
I4
aI1
aasI81
(lp2376
(lp2377
I1
aI1
aa(lp2378
I1
aI2
aasI83
(lp2379
(lp2380
I1
aI1
aa(lp2381
I2
aI3
aasI54
(lp2382
(lp2383
I1
aI2
aa(lp2384
I2
aI1
aasI87
(lp2385
(lp2386
I1
aI0
aa(lp2387
I0
aI0
aasI55
(lp2388
(lp2389
I3
aI1
aa(lp2390
I3
aI0
aasI91
(lp2391
(lp2392
I2
aI2
aa(lp2393
I2
aI2
aasI93
(lp2394
(lp2395
I1
aI1
aa(lp2396
I1
aI0
aassI16
(dp2397
I129
(lp2398
(lp2399
I1
aI0
aa(lp2400
I3
aI2
aasI131
(lp2401
(lp2402
I1
aI1
aa(lp2403
I0
aI0
aasI100
(lp2404
(lp2405
I2
aI0
aa(lp2406
I4
aI2
aasI6
(lp2407
(lp2408
I3
aI0
aa(lp2409
I1
aI3
aasI134
(lp2410
(lp2411
I3
aI2
aa(lp2412
I4
aI1
aasI7
(lp2413
(lp2414
I1
aI3
aa(lp2415
I1
aI0
aasI40
(lp2416
(lp2417
I1
aI2
aa(lp2418
I2
aI0
aasI9
(lp2419
(lp2420
I3
aI0
aa(lp2421
I0
aI1
aasI55
(lp2422
(lp2423
I2
aI1
aa(lp2424
I2
aI1
aasI79
(lp2425
(lp2426
I0
aI3
aa(lp2427
I1
aI4
aasI81
(lp2428
(lp2429
I0
aI0
aa(lp2430
I2
aI0
aasI83
(lp2431
(lp2432
I3
aI2
aa(lp2433
I3
aI2
aasI54
(lp2434
(lp2435
I2
aI2
aa(lp2436
I0
aI0
aasI23
(lp2437
(lp2438
I4
aI2
aa(lp2439
I3
aI1
aasI87
(lp2440
(lp2441
I1
aI0
aa(lp2442
I1
aI0
aasI91
(lp2443
(lp2444
I1
aI1
aa(lp2445
I4
aI0
aasI93
(lp2446
(lp2447
I0
aI0
aa(lp2448
I2
aI1
aassI81
(dp2449
I129
(lp2450
(lp2451
I2
aI1
aa(lp2452
I1
aI0
aasI131
(lp2453
(lp2454
I1
aI2
aa(lp2455
I2
aI3
aasI100
(lp2456
(lp2457
I0
aI0
aa(lp2458
I2
aI2
aasI6
(lp2459
(lp2460
I1
aI1
aa(lp2461
I1
aI3
aasI134
(lp2462
(lp2463
I1
aI6
aa(lp2464
I0
aI2
aasI7
(lp2465
(lp2466
I1
aI1
aa(lp2467
I1
aI0
aasI40
(lp2468
(lp2469
I0
aI4
aa(lp2470
I2
aI5
aasI9
(lp2471
(lp2472
I0
aI4
aa(lp2473
I0
aI3
aasI55
(lp2474
(lp2475
I0
aI1
aa(lp2476
I1
aI2
aasI79
(lp2477
(lp2478
I1
aI1
aa(lp2479
I2
aI1
aasI16
(lp2480
(lp2481
I0
aI0
aa(lp2482
I0
aI2
aasI83
(lp2483
(lp2484
I0
aI1
aa(lp2485
I1
aI0
aasI54
(lp2486
(lp2487
I1
aI1
aa(lp2488
I2
aI1
aasI23
(lp2489
(lp2490
I1
aI3
aa(lp2491
I1
aI2
aasI87
(lp2492
(lp2493
I1
aI1
aa(lp2494
I3
aI0
aasI91
(lp2495
(lp2496
I1
aI1
aa(lp2497
I0
aI0
aasI93
(lp2498
(lp2499
I0
aI2
aa(lp2500
I4
aI1
aassI83
(dp2501
I129
(lp2502
(lp2503
I1
aI2
aa(lp2504
I1
aI3
aasI131
(lp2505
(lp2506
I0
aI0
aa(lp2507
I3
aI2
aasI100
(lp2508
(lp2509
I1
aI1
aa(lp2510
I1
aI1
aasI6
(lp2511
(lp2512
I0
aI0
aa(lp2513
I2
aI1
aasI134
(lp2514
(lp2515
I0
aI3
aa(lp2516
I3
aI2
aasI7
(lp2517
(lp2518
I1
aI1
aa(lp2519
I1
aI0
aasI40
(lp2520
(lp2521
I2
aI1
aa(lp2522
I0
aI1
aasI9
(lp2523
(lp2524
I0
aI1
aa(lp2525
I1
aI2
aasI23
(lp2526
(lp2527
I5
aI1
aa(lp2528
I0
aI2
aasI79
(lp2529
(lp2530
I1
aI1
aa(lp2531
I3
aI2
aasI16
(lp2532
(lp2533
I2
aI3
aa(lp2534
I2
aI3
aasI81
(lp2535
(lp2536
I1
aI0
aa(lp2537
I0
aI1
aasI54
(lp2538
(lp2539
I2
aI2
aa(lp2540
I1
aI1
aasI87
(lp2541
(lp2542
I0
aI1
aa(lp2543
I0
aI2
aasI55
(lp2544
(lp2545
I1
aI1
aa(lp2546
I3
aI1
aasI91
(lp2547
(lp2548
I3
aI0
aa(lp2549
I2
aI4
aasI93
(lp2550
(lp2551
I3
aI1
aa(lp2552
I1
aI2
aassI54
(dp2553
I129
(lp2554
(lp2555
I3
aI3
aa(lp2556
I3
aI1
aasI131
(lp2557
(lp2558
I0
aI0
aa(lp2559
I2
aI1
aasI100
(lp2560
(lp2561
I1
aI1
aa(lp2562
I2
aI1
aasI6
(lp2563
(lp2564
I1
aI2
aa(lp2565
I2
aI3
aasI134
(lp2566
(lp2567
I1
aI3
aa(lp2568
I1
aI4
aasI7
(lp2569
(lp2570
I2
aI1
aa(lp2571
I0
aI1
aasI40
(lp2572
(lp2573
I2
aI4
aa(lp2574
I2
aI3
aasI9
(lp2575
(lp2576
I2
aI0
aa(lp2577
I0
aI2
aasI87
(lp2578
(lp2579
I2
aI1
aa(lp2580
I1
aI3
aasI79
(lp2581
(lp2582
I2
aI1
aa(lp2583
I1
aI2
aasI16
(lp2584
(lp2585
I2
aI2
aa(lp2586
I0
aI0
aasI81
(lp2587
(lp2588
I1
aI1
aa(lp2589
I1
aI2
aasI83
(lp2590
(lp2591
I2
aI2
aa(lp2592
I1
aI1
aasI55
(lp2593
(lp2594
I4
aI0
aa(lp2595
I0
aI5
aasI23
(lp2596
(lp2597
I2
aI1
aa(lp2598
I4
aI0
aasI91
(lp2599
(lp2600
I1
aI0
aa(lp2601
I2
aI1
aasI93
(lp2602
(lp2603
I0
aI2
aa(lp2604
I0
aI1
aassI23
(dp2605
I129
(lp2606
(lp2607
I2
aI1
aa(lp2608
I2
aI2
aasI131
(lp2609
(lp2610
I2
aI1
aa(lp2611
I2
aI2
aasI100
(lp2612
(lp2613
I3
aI3
aa(lp2614
I0
aI4
aasI134
(lp2615
(lp2616
I2
aI2
aa(lp2617
I1
aI3
aasI6
(lp2618
(lp2619
I0
aI3
aa(lp2620
I2
aI3
aasI7
(lp2621
(lp2622
I0
aI0
aa(lp2623
I1
aI4
aasI40
(lp2624
(lp2625
I1
aI2
aa(lp2626
I1
aI0
aasI9
(lp2627
(lp2628
I0
aI1
aa(lp2629
I1
aI2
aasI55
(lp2630
(lp2631
I3
aI0
aa(lp2632
I1
aI4
aasI79
(lp2633
(lp2634
I1
aI1
aa(lp2635
I0
aI1
aasI16
(lp2636
(lp2637
I2
aI4
aa(lp2638
I1
aI3
aasI81
(lp2639
(lp2640
I3
aI1
aa(lp2641
I2
aI1
aasI83
(lp2642
(lp2643
I1
aI5
aa(lp2644
I2
aI0
aasI54
(lp2645
(lp2646
I1
aI2
aa(lp2647
I0
aI4
aasI87
(lp2648
(lp2649
I4
aI2
aa(lp2650
I0
aI0
aasI91
(lp2651
(lp2652
I2
aI3
aa(lp2653
I0
aI4
aasI93
(lp2654
(lp2655
I1
aI2
aa(lp2656
I2
aI0
aassI55
(dp2657
I129
(lp2658
(lp2659
I0
aI2
aa(lp2660
I0
aI2
aasI131
(lp2661
(lp2662
I2
aI1
aa(lp2663
I2
aI2
aasI100
(lp2664
(lp2665
I0
aI0
aa(lp2666
I0
aI0
aasI134
(lp2667
(lp2668
I2
aI4
aa(lp2669
I0
aI3
aasI6
(lp2670
(lp2671
I1
aI1
aa(lp2672
I1
aI0
aasI7
(lp2673
(lp2674
I2
aI2
aa(lp2675
I4
aI2
aasI40
(lp2676
(lp2677
I1
aI0
aa(lp2678
I1
aI2
aasI9
(lp2679
(lp2680
I1
aI2
aa(lp2681
I1
aI1
aasI87
(lp2682
(lp2683
I1
aI0
aa(lp2684
I1
aI0
aasI79
(lp2685
(lp2686
I1
aI3
aa(lp2687
I0
aI3
aasI16
(lp2688
(lp2689
I1
aI2
aa(lp2690
I1
aI2
aasI81
(lp2691
(lp2692
I1
aI0
aa(lp2693
I2
aI1
aasI83
(lp2694
(lp2695
I1
aI1
aa(lp2696
I1
aI3
aasI54
(lp2697
(lp2698
I0
aI4
aa(lp2699
I5
aI0
aasI23
(lp2700
(lp2701
I0
aI3
aa(lp2702
I4
aI1
aasI91
(lp2703
(lp2704
I1
aI1
aa(lp2705
I0
aI2
aasI93
(lp2706
(lp2707
I1
aI0
aa(lp2708
I2
aI0
aassI91
(dp2709
I129
(lp2710
(lp2711
I3
aI4
aa(lp2712
I0
aI3
aasI131
(lp2713
(lp2714
I0
aI0
aa(lp2715
I2
aI2
aasI100
(lp2716
(lp2717
I2
aI2
aa(lp2718
I1
aI3
aasI134
(lp2719
(lp2720
I2
aI6
aa(lp2721
I2
aI1
aasI6
(lp2722
(lp2723
I3
aI1
aa(lp2724
I2
aI2
aasI7
(lp2725
(lp2726
I1
aI1
aa(lp2727
I0
aI2
aasI40
(lp2728
(lp2729
I0
aI2
aa(lp2730
I1
aI0
aasI9
(lp2731
(lp2732
I1
aI1
aa(lp2733
I1
aI3
aasI87
(lp2734
(lp2735
I1
aI0
aa(lp2736
I1
aI1
aasI79
(lp2737
(lp2738
I2
aI2
aa(lp2739
I2
aI2
aasI16
(lp2740
(lp2741
I1
aI1
aa(lp2742
I0
aI4
aasI81
(lp2743
(lp2744
I1
aI1
aa(lp2745
I0
aI0
aasI83
(lp2746
(lp2747
I0
aI3
aa(lp2748
I4
aI2
aasI54
(lp2749
(lp2750
I0
aI1
aa(lp2751
I1
aI2
aasI55
(lp2752
(lp2753
I1
aI1
aa(lp2754
I2
aI0
aasI23
(lp2755
(lp2756
I3
aI2
aa(lp2757
I4
aI0
aasI93
(lp2758
(lp2759
I1
aI0
aa(lp2760
I1
aI3
aassI93
(dp2761
I129
(lp2762
(lp2763
I1
aI0
aa(lp2764
I0
aI0
aasI131
(lp2765
(lp2766
I0
aI0
aa(lp2767
I3
aI2
aasI100
(lp2768
(lp2769
I2
aI2
aa(lp2770
I1
aI1
aasI6
(lp2771
(lp2772
I1
aI3
aa(lp2773
I2
aI1
aasI134
(lp2774
(lp2775
I1
aI1
aa(lp2776
I0
aI0
aasI7
(lp2777
(lp2778
I2
aI3
aa(lp2779
I3
aI2
aasI40
(lp2780
(lp2781
I1
aI2
aa(lp2782
I0
aI3
aasI9
(lp2783
(lp2784
I2
aI4
aa(lp2785
I0
aI2
aasI23
(lp2786
(lp2787
I2
aI1
aa(lp2788
I0
aI2
aasI79
(lp2789
(lp2790
I1
aI1
aa(lp2791
I0
aI1
aasI16
(lp2792
(lp2793
I0
aI0
aa(lp2794
I1
aI2
aasI81
(lp2795
(lp2796
I2
aI0
aa(lp2797
I1
aI4
aasI83
(lp2798
(lp2799
I1
aI3
aa(lp2800
I2
aI1
aasI54
(lp2801
(lp2802
I2
aI0
aa(lp2803
I1
aI0
aasI87
(lp2804
(lp2805
I0
aI2
aa(lp2806
I3
aI1
aasI55
(lp2807
(lp2808
I0
aI1
aa(lp2809
I0
aI2
aasI91
(lp2810
(lp2811
I0
aI1
aa(lp2812
I3
aI1
aasssI2007
(dp2813
I129
(dp2814
I131
(lp2815
(lp2816
I5
aI3
aa(lp2817
I1
aI0
aasI100
(lp2818
(lp2819
I2
aI1
aa(lp2820
I0
aI3
aasI134
(lp2821
(lp2822
I2
aI2
aa(lp2823
I2
aI1
aasI6
(lp2824
(lp2825
I0
aI2
aa(lp2826
I2
aI0
aasI7
(lp2827
(lp2828
I1
aI2
aa(lp2829
I3
aI3
aasI40
(lp2830
(lp2831
I1
aI2
aa(lp2832
I1
aI3
aasI9
(lp2833
(lp2834
I0
aI1
aa(lp2835
I0
aI3
aasI107
(lp2836
(lp2837
I2
aI0
aa(lp2838
I1
aI1
aasI79
(lp2839
(lp2840
I3
aI3
aa(lp2841
I1
aI1
aasI16
(lp2842
(lp2843
I0
aI1
aa(lp2844
I1
aI1
aasI102
(lp2845
(lp2846
I0
aI2
aa(lp2847
I1
aI2
aasI83
(lp2848
(lp2849
I3
aI0
aa(lp2850
I0
aI2
aasI105
(lp2851
(lp2852
I2
aI2
aa(lp2853
I3
aI1
aasI54
(lp2854
(lp2855
I0
aI2
aa(lp2856
I1
aI1
aasI55
(lp2857
(lp2858
I2
aI3
aa(lp2859
I2
aI1
aasI91
(lp2860
(lp2861
I0
aI0
aa(lp2862
I1
aI1
aasI93
(lp2863
(lp2864
I2
aI1
aa(lp2865
I3
aI3
aassI131
(dp2866
I129
(lp2867
(lp2868
I3
aI5
aa(lp2869
I0
aI1
aasI100
(lp2870
(lp2871
I2
aI2
aa(lp2872
I1
aI1
aasI102
(lp2873
(lp2874
I1
aI0
aa(lp2875
I1
aI0
aasI134
(lp2876
(lp2877
I1
aI1
aa(lp2878
I1
aI0
aasI7
(lp2879
(lp2880
I4
aI0
aa(lp2881
I4
aI2
aasI40
(lp2882
(lp2883
I1
aI2
aa(lp2884
I0
aI0
aasI9
(lp2885
(lp2886
I1
aI1
aa(lp2887
I2
aI1
aasI107
(lp2888
(lp2889
I3
aI1
aa(lp2890
I2
aI1
aasI79
(lp2891
(lp2892
I3
aI1
aa(lp2893
I0
aI1
aasI16
(lp2894
(lp2895
I1
aI3
aa(lp2896
I4
aI0
aasI83
(lp2897
(lp2898
I1
aI3
aa(lp2899
I1
aI0
aasI54
(lp2900
(lp2901
I1
aI2
aa(lp2902
I0
aI0
aasI105
(lp2903
(lp2904
I1
aI2
aa(lp2905
I1
aI3
aasI55
(lp2906
(lp2907
I2
aI2
aa(lp2908
I3
aI2
aasI6
(lp2909
(lp2910
I1
aI2
aa(lp2911
I2
aI2
aasI91
(lp2912
(lp2913
I2
aI2
aa(lp2914
I3
aI2
aasI93
(lp2915
(lp2916
I2
aI1
aa(lp2917
I3
aI0
aassI100
(dp2918
I129
(lp2919
(lp2920
I1
aI2
aa(lp2921
I3
aI0
aasI131
(lp2922
(lp2923
I2
aI2
aa(lp2924
I1
aI1
aasI102
(lp2925
(lp2926
I2
aI0
aa(lp2927
I3
aI1
aasI6
(lp2928
(lp2929
I1
aI0
aa(lp2930
I1
aI1
aasI7
(lp2931
(lp2932
I3
aI0
aa(lp2933
I1
aI0
aasI40
(lp2934
(lp2935
I1
aI1
aa(lp2936
I1
aI1
aasI9
(lp2937
(lp2938
I1
aI1
aa(lp2939
I0
aI1
aasI107
(lp2940
(lp2941
I1
aI0
aa(lp2942
I0
aI1
aasI79
(lp2943
(lp2944
I1
aI0
aa(lp2945
I0
aI0
aasI16
(lp2946
(lp2947
I4
aI1
aa(lp2948
I0
aI1
aasI83
(lp2949
(lp2950
I1
aI0
aa(lp2951
I1
aI1
aasI105
(lp2952
(lp2953
I1
aI1
aa(lp2954
I7
aI0
aasI54
(lp2955
(lp2956
I2
aI1
aa(lp2957
I0
aI0
aasI55
(lp2958
(lp2959
I1
aI0
aa(lp2960
I1
aI1
aasI91
(lp2961
(lp2962
I1
aI2
aa(lp2963
I4
aI1
aasI93
(lp2964
(lp2965
I0
aI0
aa(lp2966
I0
aI2
aasI134
(lp2967
(lp2968
I1
aI2
aa(lp2969
I0
aI1
aassI102
(dp2970
I129
(lp2971
(lp2972
I2
aI0
aa(lp2973
I2
aI1
aasI131
(lp2974
(lp2975
I0
aI1
aa(lp2976
I0
aI1
aasI100
(lp2977
(lp2978
I0
aI2
aa(lp2979
I1
aI3
aasI6
(lp2980
(lp2981
I0
aI3
aa(lp2982
I1
aI2
aasI134
(lp2983
(lp2984
I0
aI1
aa(lp2985
I1
aI2
aasI7
(lp2986
(lp2987
I0
aI1
aa(lp2988
I0
aI1
aasI40
(lp2989
(lp2990
I0
aI3
aa(lp2991
I1
aI2
aasI9
(lp2992
(lp2993
I1
aI1
aa(lp2994
I0
aI1
aasI107
(lp2995
(lp2996
I2
aI0
aa(lp2997
I1
aI1
aasI79
(lp2998
(lp2999
I1
aI2
aa(lp3000
I1
aI1
aasI16
(lp3001
(lp3002
I2
aI1
aa(lp3003
I1
aI4
aasI83
(lp3004
(lp3005
I2
aI4
aa(lp3006
I1
aI1
aasI54
(lp3007
(lp3008
I3
aI1
aa(lp3009
I0
aI0
aasI105
(lp3010
(lp3011
I0
aI0
aa(lp3012
I2
aI1
aasI55
(lp3013
(lp3014
I0
aI3
aa(lp3015
I0
aI3
aasI91
(lp3016
(lp3017
I0
aI1
aa(lp3018
I1
aI0
aasI93
(lp3019
(lp3020
I3
aI2
aa(lp3021
I1
aI2
aassI6
(dp3022
I129
(lp3023
(lp3024
I2
aI0
aa(lp3025
I0
aI2
aasI131
(lp3026
(lp3027
I2
aI1
aa(lp3028
I2
aI2
aasI100
(lp3029
(lp3030
I0
aI1
aa(lp3031
I1
aI1
aasI134
(lp3032
(lp3033
I2
aI5
aa(lp3034
I0
aI1
aasI102
(lp3035
(lp3036
I3
aI0
aa(lp3037
I2
aI1
aasI7
(lp3038
(lp3039
I2
aI2
aa(lp3040
I1
aI2
aasI40
(lp3041
(lp3042
I0
aI1
aa(lp3043
I1
aI2
aasI105
(lp3044
(lp3045
I3
aI0
aa(lp3046
I2
aI2
aasI107
(lp3047
(lp3048
I4
aI1
aa(lp3049
I2
aI3
aasI79
(lp3050
(lp3051
I2
aI1
aa(lp3052
I4
aI1
aasI16
(lp3053
(lp3054
I0
aI1
aa(lp3055
I3
aI0
aasI83
(lp3056
(lp3057
I4
aI0
aa(lp3058
I0
aI1
aasI9
(lp3059
(lp3060
I1
aI1
aa(lp3061
I1
aI0
aasI54
(lp3062
(lp3063
I3
aI0
aa(lp3064
I1
aI2
aasI55
(lp3065
(lp3066
I3
aI0
aa(lp3067
I2
aI0
aasI91
(lp3068
(lp3069
I1
aI2
aa(lp3070
I0
aI2
aasI93
(lp3071
(lp3072
I0
aI0
aa(lp3073
I3
aI2
aassI7
(dp3074
I129
(lp3075
(lp3076
I2
aI1
aa(lp3077
I3
aI3
aasI131
(lp3078
(lp3079
I0
aI4
aa(lp3080
I2
aI4
aasI100
(lp3081
(lp3082
I0
aI3
aa(lp3083
I0
aI1
aasI134
(lp3084
(lp3085
I3
aI0
aa(lp3086
I0
aI2
aasI102
(lp3087
(lp3088
I1
aI0
aa(lp3089
I1
aI0
aasI40
(lp3090
(lp3091
I0
aI0
aa(lp3092
I0
aI5
aasI9
(lp3093
(lp3094
I1
aI4
aa(lp3095
I2
aI3
aasI107
(lp3096
(lp3097
I1
aI3
aa(lp3098
I3
aI3
aasI79
(lp3099
(lp3100
I0
aI2
aa(lp3101
I0
aI0
aasI16
(lp3102
(lp3103
I2
aI1
aa(lp3104
I3
aI2
aasI83
(lp3105
(lp3106
I6
aI1
aa(lp3107
I2
aI2
aasI54
(lp3108
(lp3109
I2
aI3
aa(lp3110
I1
aI1
aasI105
(lp3111
(lp3112
I1
aI3
aa(lp3113
I1
aI1
aasI55
(lp3114
(lp3115
I1
aI2
aa(lp3116
I1
aI3
aasI6
(lp3117
(lp3118
I2
aI2
aa(lp3119
I2
aI1
aasI91
(lp3120
(lp3121
I1
aI1
aa(lp3122
I1
aI1
aasI93
(lp3123
(lp3124
I3
aI0
aa(lp3125
I2
aI0
aassI40
(dp3126
I107
(lp3127
(lp3128
I0
aI0
aa(lp3129
I3
aI2
aasI129
(lp3130
(lp3131
I2
aI1
aa(lp3132
I3
aI1
aasI131
(lp3133
(lp3134
I2
aI1
aa(lp3135
I0
aI0
aasI100
(lp3136
(lp3137
I1
aI1
aa(lp3138
I1
aI1
aasI102
(lp3139
(lp3140
I3
aI0
aa(lp3141
I2
aI1
aasI134
(lp3142
(lp3143
I4
aI0
aa(lp3144
I1
aI1
aasI7
(lp3145
(lp3146
I0
aI0
aa(lp3147
I5
aI0
aasI9
(lp3148
(lp3149
I1
aI1
aa(lp3150
I1
aI0
aasI55
(lp3151
(lp3152
I3
aI0
aa(lp3153
I3
aI0
aasI79
(lp3154
(lp3155
I3
aI0
aa(lp3156
I1
aI1
aasI16
(lp3157
(lp3158
I1
aI3
aa(lp3159
I4
aI1
aasI83
(lp3160
(lp3161
I1
aI0
aa(lp3162
I2
aI0
aasI54
(lp3163
(lp3164
I0
aI0
aa(lp3165
I4
aI1
aasI105
(lp3166
(lp3167
I4
aI1
aa(lp3168
I2
aI0
aasI6
(lp3169
(lp3170
I1
aI0
aa(lp3171
I2
aI1
aasI91
(lp3172
(lp3173
I0
aI0
aa(lp3174
I3
aI1
aasI93
(lp3175
(lp3176
I5
aI0
aa(lp3177
I0
aI2
aassI9
(dp3178
I129
(lp3179
(lp3180
I1
aI0
aa(lp3181
I3
aI0
aasI131
(lp3182
(lp3183
I1
aI1
aa(lp3184
I1
aI2
aasI100
(lp3185
(lp3186
I1
aI1
aa(lp3187
I1
aI0
aasI102
(lp3188
(lp3189
I1
aI1
aa(lp3190
I1
aI0
aasI6
(lp3191
(lp3192
I1
aI1
aa(lp3193
I0
aI1
aasI7
(lp3194
(lp3195
I4
aI1
aa(lp3196
I3
aI2
aasI40
(lp3197
(lp3198
I1
aI1
aa(lp3199
I0
aI1
aasI105
(lp3200
(lp3201
I0
aI2
aa(lp3202
I0
aI0
aasI107
(lp3203
(lp3204
I2
aI0
aa(lp3205
I2
aI1
aasI79
(lp3206
(lp3207
I2
aI1
aa(lp3208
I2
aI0
aasI16
(lp3209
(lp3210
I2
aI2
aa(lp3211
I4
aI1
aasI83
(lp3212
(lp3213
I3
aI0
aa(lp3214
I2
aI0
aasI54
(lp3215
(lp3216
I1
aI0
aa(lp3217
I2
aI1
aasI55
(lp3218
(lp3219
I3
aI2
aa(lp3220
I1
aI1
aasI91
(lp3221
(lp3222
I2
aI2
aa(lp3223
I1
aI0
aasI93
(lp3224
(lp3225
I0
aI1
aa(lp3226
I5
aI0
aasI134
(lp3227
(lp3228
I1
aI1
aa(lp3229
I1
aI5
aassI107
(dp3230
I129
(lp3231
(lp3232
I0
aI2
aa(lp3233
I1
aI1
aasI131
(lp3234
(lp3235
I1
aI3
aa(lp3236
I1
aI2
aasI100
(lp3237
(lp3238
I0
aI1
aa(lp3239
I1
aI0
aasI134
(lp3240
(lp3241
I1
aI3
aa(lp3242
I2
aI1
aasI102
(lp3243
(lp3244
I0
aI2
aa(lp3245
I1
aI1
aasI7
(lp3246
(lp3247
I3
aI1
aa(lp3248
I3
aI3
aasI40
(lp3249
(lp3250
I0
aI0
aa(lp3251
I2
aI3
aasI9
(lp3252
(lp3253
I0
aI2
aa(lp3254
I1
aI2
aasI79
(lp3255
(lp3256
I1
aI0
aa(lp3257
I0
aI2
aasI16
(lp3258
(lp3259
I0
aI1
aa(lp3260
I2
aI3
aasI83
(lp3261
(lp3262
I3
aI0
aa(lp3263
I2
aI0
aasI105
(lp3264
(lp3265
I0
aI1
aa(lp3266
I0
aI1
aasI54
(lp3267
(lp3268
I1
aI2
aa(lp3269
I0
aI2
aasI55
(lp3270
(lp3271
I1
aI2
aa(lp3272
I1
aI1
aasI6
(lp3273
(lp3274
I1
aI4
aa(lp3275
I3
aI2
aasI91
(lp3276
(lp3277
I0
aI1
aa(lp3278
I2
aI4
aasI93
(lp3279
(lp3280
I2
aI1
aa(lp3281
I0
aI1
aassI79
(dp3282
I129
(lp3283
(lp3284
I3
aI3
aa(lp3285
I1
aI1
aasI131
(lp3286
(lp3287
I1
aI3
aa(lp3288
I1
aI0
aasI100
(lp3289
(lp3290
I0
aI1
aa(lp3291
I0
aI0
aasI102
(lp3292
(lp3293
I2
aI1
aa(lp3294
I1
aI1
aasI134
(lp3295
(lp3296
I0
aI1
aa(lp3297
I0
aI2
aasI7
(lp3298
(lp3299
I2
aI0
aa(lp3300
I0
aI0
aasI40
(lp3301
(lp3302
I0
aI3
aa(lp3303
I1
aI1
aasI105
(lp3304
(lp3305
I0
aI2
aa(lp3306
I0
aI2
aasI107
(lp3307
(lp3308
I0
aI1
aa(lp3309
I2
aI0
aasI16
(lp3310
(lp3311
I0
aI1
aa(lp3312
I0
aI3
aasI83
(lp3313
(lp3314
I1
aI3
aa(lp3315
I2
aI2
aasI9
(lp3316
(lp3317
I1
aI2
aa(lp3318
I0
aI2
aasI54
(lp3319
(lp3320
I2
aI1
aa(lp3321
I0
aI1
aasI55
(lp3322
(lp3323
I2
aI2
aa(lp3324
I1
aI2
aasI6
(lp3325
(lp3326
I1
aI2
aa(lp3327
I1
aI4
aasI91
(lp3328
(lp3329
I5
aI1
aa(lp3330
I3
aI1
aasI93
(lp3331
(lp3332
I1
aI1
aa(lp3333
I1
aI1
aassI16
(dp3334
I129
(lp3335
(lp3336
I1
aI0
aa(lp3337
I1
aI1
aasI131
(lp3338
(lp3339
I3
aI1
aa(lp3340
I0
aI4
aasI100
(lp3341
(lp3342
I1
aI4
aa(lp3343
I1
aI0
aasI102
(lp3344
(lp3345
I1
aI2
aa(lp3346
I4
aI1
aasI134
(lp3347
(lp3348
I1
aI4
aa(lp3349
I6
aI3
aasI7
(lp3350
(lp3351
I1
aI2
aa(lp3352
I2
aI3
aasI40
(lp3353
(lp3354
I3
aI1
aa(lp3355
I1
aI4
aasI9
(lp3356
(lp3357
I2
aI2
aa(lp3358
I1
aI4
aasI107
(lp3359
(lp3360
I1
aI0
aa(lp3361
I3
aI2
aasI79
(lp3362
(lp3363
I1
aI0
aa(lp3364
I3
aI0
aasI83
(lp3365
(lp3366
I0
aI2
aa(lp3367
I2
aI2
aasI54
(lp3368
(lp3369
I1
aI3
aa(lp3370
I1
aI3
aasI105
(lp3371
(lp3372
I0
aI1
aa(lp3373
I3
aI1
aasI55
(lp3374
(lp3375
I0
aI2
aa(lp3376
I0
aI0
aasI6
(lp3377
(lp3378
I1
aI0
aa(lp3379
I0
aI3
aasI91
(lp3380
(lp3381
I4
aI1
aa(lp3382
I4
aI1
aasI93
(lp3383
(lp3384
I3
aI0
aa(lp3385
I1
aI0
aassI83
(dp3386
I129
(lp3387
(lp3388
I0
aI3
aa(lp3389
I2
aI0
aasI131
(lp3390
(lp3391
I3
aI1
aa(lp3392
I0
aI1
aasI100
(lp3393
(lp3394
I0
aI1
aa(lp3395
I1
aI1
aasI134
(lp3396
(lp3397
I1
aI8
aa(lp3398
I1
aI1
aasI102
(lp3399
(lp3400
I4
aI2
aa(lp3401
I1
aI1
aasI7
(lp3402
(lp3403
I1
aI6
aa(lp3404
I2
aI2
aasI40
(lp3405
(lp3406
I0
aI1
aa(lp3407
I0
aI2
aasI9
(lp3408
(lp3409
I0
aI3
aa(lp3410
I0
aI2
aasI107
(lp3411
(lp3412
I0
aI3
aa(lp3413
I0
aI2
aasI79
(lp3414
(lp3415
I3
aI1
aa(lp3416
I2
aI2
aasI16
(lp3417
(lp3418
I2
aI0
aa(lp3419
I2
aI2
aasI105
(lp3420
(lp3421
I0
aI0
aa(lp3422
I1
aI0
aasI54
(lp3423
(lp3424
I2
aI0
aa(lp3425
I0
aI1
aasI55
(lp3426
(lp3427
I0
aI2
aa(lp3428
I2
aI2
aasI6
(lp3429
(lp3430
I0
aI4
aa(lp3431
I1
aI0
aasI91
(lp3432
(lp3433
I2
aI2
aa(lp3434
I1
aI2
aasI93
(lp3435
(lp3436
I1
aI1
aa(lp3437
I0
aI1
aassI105
(dp3438
I129
(lp3439
(lp3440
I2
aI2
aa(lp3441
I1
aI3
aasI131
(lp3442
(lp3443
I2
aI1
aa(lp3444
I3
aI1
aasI100
(lp3445
(lp3446
I1
aI1
aa(lp3447
I0
aI7
aasI102
(lp3448
(lp3449
I0
aI0
aa(lp3450
I1
aI2
aasI6
(lp3451
(lp3452
I0
aI3
aa(lp3453
I2
aI2
aasI7
(lp3454
(lp3455
I3
aI1
aa(lp3456
I1
aI1
aasI40
(lp3457
(lp3458
I1
aI4
aa(lp3459
I0
aI2
aasI9
(lp3460
(lp3461
I2
aI0
aa(lp3462
I0
aI0
aasI107
(lp3463
(lp3464
I1
aI0
aa(lp3465
I1
aI0
aasI79
(lp3466
(lp3467
I2
aI0
aa(lp3468
I2
aI0
aasI16
(lp3469
(lp3470
I1
aI0
aa(lp3471
I1
aI3
aasI83
(lp3472
(lp3473
I0
aI0
aa(lp3474
I0
aI1
aasI54
(lp3475
(lp3476
I2
aI1
aa(lp3477
I1
aI3
aasI55
(lp3478
(lp3479
I1
aI2
aa(lp3480
I2
aI2
aasI91
(lp3481
(lp3482
I1
aI0
aa(lp3483
I0
aI1
aasI93
(lp3484
(lp3485
I0
aI2
aa(lp3486
I1
aI1
aasI134
(lp3487
(lp3488
I0
aI4
aa(lp3489
I3
aI3
aassI54
(dp3490
I129
(lp3491
(lp3492
I2
aI0
aa(lp3493
I1
aI1
aasI131
(lp3494
(lp3495
I2
aI1
aa(lp3496
I0
aI0
aasI100
(lp3497
(lp3498
I1
aI2
aa(lp3499
I0
aI0
aasI134
(lp3500
(lp3501
I2
aI3
aa(lp3502
I1
aI2
aasI102
(lp3503
(lp3504
I1
aI3
aa(lp3505
I0
aI0
aasI7
(lp3506
(lp3507
I3
aI2
aa(lp3508
I1
aI1
aasI40
(lp3509
(lp3510
I0
aI0
aa(lp3511
I1
aI4
aasI9
(lp3512
(lp3513
I0
aI1
aa(lp3514
I1
aI2
aasI107
(lp3515
(lp3516
I2
aI1
aa(lp3517
I2
aI0
aasI79
(lp3518
(lp3519
I1
aI2
aa(lp3520
I1
aI0
aasI16
(lp3521
(lp3522
I3
aI1
aa(lp3523
I3
aI1
aasI83
(lp3524
(lp3525
I0
aI2
aa(lp3526
I1
aI0
aasI105
(lp3527
(lp3528
I1
aI2
aa(lp3529
I3
aI1
aasI55
(lp3530
(lp3531
I1
aI0
aa(lp3532
I2
aI2
aasI6
(lp3533
(lp3534
I0
aI3
aa(lp3535
I2
aI1
aasI91
(lp3536
(lp3537
I0
aI1
aa(lp3538
I0
aI3
aasI93
(lp3539
(lp3540
I0
aI0
aa(lp3541
I1
aI2
aassI55
(dp3542
I129
(lp3543
(lp3544
I3
aI2
aa(lp3545
I1
aI2
aasI131
(lp3546
(lp3547
I2
aI2
aa(lp3548
I2
aI3
aasI100
(lp3549
(lp3550
I0
aI1
aa(lp3551
I1
aI1
aasI102
(lp3552
(lp3553
I3
aI0
aa(lp3554
I3
aI0
aasI6
(lp3555
(lp3556
I0
aI3
aa(lp3557
I0
aI2
aasI7
(lp3558
(lp3559
I2
aI1
aa(lp3560
I3
aI1
aasI40
(lp3561
(lp3562
I0
aI3
aa(lp3563
I0
aI3
aasI105
(lp3564
(lp3565
I2
aI1
aa(lp3566
I2
aI2
aasI107
(lp3567
(lp3568
I2
aI1
aa(lp3569
I1
aI1
aasI79
(lp3570
(lp3571
I2
aI2
aa(lp3572
I2
aI1
aasI16
(lp3573
(lp3574
I2
aI0
aa(lp3575
I0
aI0
aasI83
(lp3576
(lp3577
I2
aI0
aa(lp3578
I2
aI2
aasI54
(lp3579
(lp3580
I0
aI1
aa(lp3581
I2
aI2
aasI9
(lp3582
(lp3583
I2
aI3
aa(lp3584
I1
aI1
aasI91
(lp3585
(lp3586
I0
aI0
aa(lp3587
I2
aI1
aasI93
(lp3588
(lp3589
I1
aI5
aa(lp3590
I4
aI0
aasI134
(lp3591
(lp3592
I4
aI3
aa(lp3593
I1
aI6
aassI91
(dp3594
I129
(lp3595
(lp3596
I0
aI0
aa(lp3597
I1
aI1
aasI131
(lp3598
(lp3599
I2
aI2
aa(lp3600
I2
aI3
aasI100
(lp3601
(lp3602
I2
aI1
aa(lp3603
I1
aI4
aasI134
(lp3604
(lp3605
I1
aI2
aa(lp3606
I1
aI0
aasI102
(lp3607
(lp3608
I1
aI0
aa(lp3609
I0
aI1
aasI7
(lp3610
(lp3611
I1
aI1
aa(lp3612
I1
aI1
aasI40
(lp3613
(lp3614
I0
aI0
aa(lp3615
I1
aI3
aasI105
(lp3616
(lp3617
I0
aI1
aa(lp3618
I1
aI0
aasI107
(lp3619
(lp3620
I1
aI0
aa(lp3621
I4
aI2
aasI79
(lp3622
(lp3623
I1
aI5
aa(lp3624
I1
aI3
aasI16
(lp3625
(lp3626
I1
aI4
aa(lp3627
I1
aI4
aasI83
(lp3628
(lp3629
I2
aI2
aa(lp3630
I2
aI1
aasI9
(lp3631
(lp3632
I2
aI2
aa(lp3633
I0
aI1
aasI54
(lp3634
(lp3635
I1
aI0
aa(lp3636
I3
aI0
aasI55
(lp3637
(lp3638
I0
aI0
aa(lp3639
I1
aI2
aasI6
(lp3640
(lp3641
I2
aI1
aa(lp3642
I2
aI0
aasI93
(lp3643
(lp3644
I2
aI2
aa(lp3645
I2
aI1
aassI93
(dp3646
I129
(lp3647
(lp3648
I1
aI2
aa(lp3649
I3
aI3
aasI131
(lp3650
(lp3651
I1
aI2
aa(lp3652
I0
aI3
aasI100
(lp3653
(lp3654
I0
aI0
aa(lp3655
I2
aI0
aasI102
(lp3656
(lp3657
I2
aI3
aa(lp3658
I2
aI1
aasI6
(lp3659
(lp3660
I0
aI0
aa(lp3661
I2
aI3
aasI7
(lp3662
(lp3663
I0
aI3
aa(lp3664
I0
aI2
aasI40
(lp3665
(lp3666
I0
aI5
aa(lp3667
I2
aI0
aasI9
(lp3668
(lp3669
I1
aI0
aa(lp3670
I0
aI5
aasI107
(lp3671
(lp3672
I1
aI2
aa(lp3673
I1
aI0
aasI79
(lp3674
(lp3675
I1
aI1
aa(lp3676
I1
aI1
aasI16
(lp3677
(lp3678
I0
aI3
aa(lp3679
I0
aI1
aasI83
(lp3680
(lp3681
I1
aI1
aa(lp3682
I1
aI0
aasI54
(lp3683
(lp3684
I0
aI0
aa(lp3685
I2
aI1
aasI105
(lp3686
(lp3687
I2
aI0
aa(lp3688
I1
aI1
aasI55
(lp3689
(lp3690
I5
aI1
aa(lp3691
I0
aI4
aasI91
(lp3692
(lp3693
I2
aI2
aa(lp3694
I1
aI2
aasI134
(lp3695
(lp3696
I0
aI2
aa(lp3697
I0
aI2
aassI134
(dp3698
I129
(lp3699
(lp3700
I2
aI2
aa(lp3701
I1
aI2
aasI131
(lp3702
(lp3703
I1
aI1
aa(lp3704
I0
aI1
aasI100
(lp3705
(lp3706
I2
aI1
aa(lp3707
I1
aI0
aasI6
(lp3708
(lp3709
I5
aI2
aa(lp3710
I1
aI0
aasI102
(lp3711
(lp3712
I1
aI0
aa(lp3713
I2
aI1
aasI7
(lp3714
(lp3715
I0
aI3
aa(lp3716
I2
aI0
aasI40
(lp3717
(lp3718
I0
aI4
aa(lp3719
I1
aI1
aasI9
(lp3720
(lp3721
I1
aI1
aa(lp3722
I5
aI1
aasI107
(lp3723
(lp3724
I3
aI1
aa(lp3725
I1
aI2
aasI79
(lp3726
(lp3727
I1
aI0
aa(lp3728
I2
aI0
aasI16
(lp3729
(lp3730
I4
aI1
aa(lp3731
I3
aI6
aasI83
(lp3732
(lp3733
I8
aI1
aa(lp3734
I1
aI1
aasI54
(lp3735
(lp3736
I3
aI2
aa(lp3737
I2
aI1
aasI105
(lp3738
(lp3739
I4
aI0
aa(lp3740
I3
aI3
aasI55
(lp3741
(lp3742
I3
aI4
aa(lp3743
I6
aI1
aasI91
(lp3744
(lp3745
I2
aI1
aa(lp3746
I0
aI1
aasI93
(lp3747
(lp3748
I2
aI0
aa(lp3749
I2
aI0
aasssI2008
(dp3750
I65
(dp3751
I123
(lp3752
(lp3753
I1
aI3
aa(lp3754
I0
aI2
aasI129
(lp3755
(lp3756
I2
aI1
aa(lp3757
I1
aI1
aasI131
(lp3758
(lp3759
I1
aI2
aa(lp3760
I1
aI1
aasI100
(lp3761
(lp3762
I1
aI2
aa(lp3763
I1
aI0
aasI134
(lp3764
(lp3765
I1
aI3
aa(lp3766
I1
aI0
aasI6
(lp3767
(lp3768
I0
aI2
aa(lp3769
I0
aI2
aasI7
(lp3770
(lp3771
I0
aI1
aa(lp3772
I1
aI3
aasI40
(lp3773
(lp3774
I0
aI3
aa(lp3775
I2
aI1
aasI105
(lp3776
(lp3777
I2
aI0
aa(lp3778
I0
aI0
aasI87
(lp3779
(lp3780
I2
aI1
aa(lp3781
I2
aI4
aasI16
(lp3782
(lp3783
I3
aI1
aa(lp3784
I0
aI3
aasI83
(lp3785
(lp3786
I0
aI2
aa(lp3787
I1
aI1
aasI54
(lp3788
(lp3789
I1
aI2
aa(lp3790
I1
aI2
aasI9
(lp3791
(lp3792
I1
aI0
aa(lp3793
I0
aI1
aasI55
(lp3794
(lp3795
I2
aI1
aa(lp3796
I1
aI2
aasI91
(lp3797
(lp3798
I1
aI1
aa(lp3799
I2
aI2
aasI93
(lp3800
(lp3801
I1
aI0
aa(lp3802
I2
aI0
aassI131
(dp3803
I65
(lp3804
(lp3805
I2
aI1
aa(lp3806
I1
aI1
aasI123
(lp3807
(lp3808
I2
aI3
aa(lp3809
I4
aI0
aasI100
(lp3810
(lp3811
I3
aI0
aa(lp3812
I3
aI1
aasI134
(lp3813
(lp3814
I1
aI2
aa(lp3815
I5
aI1
aasI6
(lp3816
(lp3817
I0
aI2
aa(lp3818
I2
aI1
aasI129
(lp3819
(lp3820
I2
aI2
aa(lp3821
I2
aI0
aasI40
(lp3822
(lp3823
I2
aI4
aa(lp3824
I5
aI1
aasI105
(lp3825
(lp3826
I1
aI2
aa(lp3827
I1
aI0
aasI87
(lp3828
(lp3829
I3
aI0
aa(lp3830
I2
aI1
aasI16
(lp3831
(lp3832
I4
aI1
aa(lp3833
I1
aI4
aasI83
(lp3834
(lp3835
I4
aI1
aa(lp3836
I3
aI0
aasI54
(lp3837
(lp3838
I2
aI2
aa(lp3839
I2
aI1
aasI9
(lp3840
(lp3841
I2
aI2
aa(lp3842
I4
aI3
aasI7
(lp3843
(lp3844
I0
aI0
aa(lp3845
I3
aI0
aasI55
(lp3846
(lp3847
I2
aI1
aa(lp3848
I5
aI0
aasI91
(lp3849
(lp3850
I2
aI2
aa(lp3851
I2
aI0
aasI93
(lp3852
(lp3853
I3
aI0
aa(lp3854
I0
aI2
aassI100
(dp3855
I129
(lp3856
(lp3857
I1
aI1
aa(lp3858
I3
aI1
aasI131
(lp3859
(lp3860
I0
aI3
aa(lp3861
I1
aI3
aasI134
(lp3862
(lp3863
I2
aI1
aa(lp3864
I0
aI2
aasI6
(lp3865
(lp3866
I3
aI2
aa(lp3867
I2
aI1
aasI7
(lp3868
(lp3869
I2
aI1
aa(lp3870
I0
aI2
aasI40
(lp3871
(lp3872
I2
aI2
aa(lp3873
I1
aI0
aasI105
(lp3874
(lp3875
I2
aI1
aa(lp3876
I2
aI3
aasI55
(lp3877
(lp3878
I0
aI3
aa(lp3879
I2
aI1
aasI16
(lp3880
(lp3881
I2
aI0
aa(lp3882
I0
aI1
aasI91
(lp3883
(lp3884
I1
aI0
aa(lp3885
I3
aI2
aasI83
(lp3886
(lp3887
I4
aI2
aa(lp3888
I2
aI0
aasI9
(lp3889
(lp3890
I1
aI1
aa(lp3891
I2
aI1
aasI54
(lp3892
(lp3893
I1
aI2
aa(lp3894
I1
aI1
aasI87
(lp3895
(lp3896
I1
aI0
aa(lp3897
I1
aI4
aasI123
(lp3898
(lp3899
I0
aI3
aa(lp3900
I1
aI0
aasI93
(lp3901
(lp3902
I2
aI1
aa(lp3903
I2
aI0
aasI65
(lp3904
(lp3905
I2
aI1
aa(lp3906
I0
aI1
aassI134
(dp3907
I129
(lp3908
(lp3909
I0
aI0
aa(lp3910
I3
aI2
aasI91
(lp3911
(lp3912
I5
aI0
aa(lp3913
I5
aI0
aasI100
(lp3914
(lp3915
I1
aI2
aa(lp3916
I2
aI0
aasI6
(lp3917
(lp3918
I0
aI2
aa(lp3919
I1
aI1
aasI7
(lp3920
(lp3921
I3
aI3
aa(lp3922
I0
aI1
aasI40
(lp3923
(lp3924
I5
aI2
aa(lp3925
I0
aI0
aasI9
(lp3926
(lp3927
I1
aI1
aa(lp3928
I0
aI1
aasI55
(lp3929
(lp3930
I1
aI1
aa(lp3931
I4
aI1
aasI16
(lp3932
(lp3933
I1
aI4
aa(lp3934
I4
aI0
aasI83
(lp3935
(lp3936
I2
aI2
aa(lp3937
I1
aI2
aasI105
(lp3938
(lp3939
I0
aI1
aa(lp3940
I1
aI3
aasI131
(lp3941
(lp3942
I2
aI1
aa(lp3943
I1
aI5
aasI54
(lp3944
(lp3945
I5
aI1
aa(lp3946
I1
aI2
aasI87
(lp3947
(lp3948
I2
aI3
aa(lp3949
I1
aI1
aasI123
(lp3950
(lp3951
I5
aI4
aa(lp3952
I0
aI0
aasI93
(lp3953
(lp3954
I3
aI0
aa(lp3955
I1
aI2
aasI65
(lp3956
(lp3957
I3
aI1
aa(lp3958
I0
aI1
aassI6
(dp3959
I129
(lp3960
(lp3961
I3
aI2
aa(lp3962
I1
aI1
aasI83
(lp3963
(lp3964
I1
aI2
aa(lp3965
I2
aI2
aasI91
(lp3966
(lp3967
I2
aI0
aa(lp3968
I1
aI1
aasI100
(lp3969
(lp3970
I2
aI3
aa(lp3971
I1
aI2
aasI134
(lp3972
(lp3973
I2
aI0
aa(lp3974
I1
aI1
aasI65
(lp3975
(lp3976
I2
aI0
aa(lp3977
I2
aI0
aasI7
(lp3978
(lp3979
I2
aI3
aa(lp3980
I1
aI1
aasI40
(lp3981
(lp3982
I0
aI2
aa(lp3983
I0
aI3
aasI105
(lp3984
(lp3985
I3
aI3
aa(lp3986
I0
aI1
aasI87
(lp3987
(lp3988
I3
aI1
aa(lp3989
I5
aI0
aasI16
(lp3990
(lp3991
I2
aI0
aa(lp3992
I2
aI4
aasI131
(lp3993
(lp3994
I2
aI0
aa(lp3995
I1
aI2
aasI9
(lp3996
(lp3997
I2
aI1
aa(lp3998
I2
aI1
aasI54
(lp3999
(lp4000
I0
aI1
aa(lp4001
I0
aI1
aasI55
(lp4002
(lp4003
I4
aI0
aa(lp4004
I0
aI1
aasI123
(lp4005
(lp4006
I5
aI2
aa(lp4007
I4
aI1
aasI93
(lp4008
(lp4009
I1
aI1
aa(lp4010
I0
aI3
aassI7
(dp4011
I65
(lp4012
(lp4013
I1
aI0
aa(lp4014
I3
aI1
aasI83
(lp4015
(lp4016
I0
aI0
aa(lp4017
I6
aI0
aasI91
(lp4018
(lp4019
I4
aI0
aa(lp4020
I2
aI0
aasI100
(lp4021
(lp4022
I1
aI2
aa(lp4023
I2
aI0
aasI134
(lp4024
(lp4025
I3
aI3
aa(lp4026
I1
aI0
aasI6
(lp4027
(lp4028
I3
aI2
aa(lp4029
I1
aI1
aasI129
(lp4030
(lp4031
I1
aI1
aa(lp4032
I2
aI0
aasI40
(lp4033
(lp4034
I1
aI1
aa(lp4035
I1
aI3
aasI9
(lp4036
(lp4037
I3
aI3
aa(lp4038
I1
aI1
aasI87
(lp4039
(lp4040
I2
aI1
aa(lp4041
I1
aI1
aasI16
(lp4042
(lp4043
I3
aI0
aa(lp4044
I1
aI2
aasI131
(lp4045
(lp4046
I0
aI0
aa(lp4047
I0
aI3
aasI105
(lp4048
(lp4049
I1
aI0
aa(lp4050
I4
aI0
aasI54
(lp4051
(lp4052
I1
aI1
aa(lp4053
I3
aI1
aasI55
(lp4054
(lp4055
I1
aI1
aa(lp4056
I4
aI4
aasI123
(lp4057
(lp4058
I1
aI4
aa(lp4059
I0
aI0
aasI93
(lp4060
(lp4061
I1
aI0
aa(lp4062
I1
aI1
aassI40
(dp4063
I123
(lp4064
(lp4065
I2
aI1
aa(lp4066
I2
aI2
aasI65
(lp4067
(lp4068
I3
aI0
aa(lp4069
I1
aI2
aasI131
(lp4070
(lp4071
I4
aI2
aa(lp4072
I1
aI5
aasI100
(lp4073
(lp4074
I2
aI2
aa(lp4075
I0
aI1
aasI6
(lp4076
(lp4077
I2
aI0
aa(lp4078
I3
aI0
aasI134
(lp4079
(lp4080
I2
aI5
aa(lp4081
I0
aI0
aasI7
(lp4082
(lp4083
I1
aI1
aa(lp4084
I3
aI1
aasI129
(lp4085
(lp4086
I3
aI3
aa(lp4087
I3
aI0
aasI105
(lp4088
(lp4089
I1
aI0
aa(lp4090
I1
aI0
aasI87
(lp4091
(lp4092
I2
aI2
aa(lp4093
I2
aI1
aasI16
(lp4094
(lp4095
I2
aI2
aa(lp4096
I2
aI1
aasI83
(lp4097
(lp4098
I3
aI1
aa(lp4099
I1
aI0
aasI9
(lp4100
(lp4101
I2
aI1
aa(lp4102
I0
aI1
aasI54
(lp4103
(lp4104
I4
aI1
aa(lp4105
I1
aI2
aasI55
(lp4106
(lp4107
I0
aI1
aa(lp4108
I5
aI1
aasI91
(lp4109
(lp4110
I2
aI1
aa(lp4111
I4
aI0
aasI93
(lp4112
(lp4113
I4
aI1
aa(lp4114
I3
aI1
aassI9
(dp4115
I123
(lp4116
(lp4117
I1
aI1
aa(lp4118
I2
aI3
aasI129
(lp4119
(lp4120
I1
aI0
aa(lp4121
I1
aI2
aasI131
(lp4122
(lp4123
I2
aI2
aa(lp4124
I3
aI4
aasI100
(lp4125
(lp4126
I1
aI1
aa(lp4127
I1
aI2
aasI134
(lp4128
(lp4129
I1
aI1
aa(lp4130
I1
aI0
aasI65
(lp4131
(lp4132
I0
aI1
aa(lp4133
I1
aI0
aasI7
(lp4134
(lp4135
I3
aI3
aa(lp4136
I1
aI1
aasI40
(lp4137
(lp4138
I1
aI2
aa(lp4139
I1
aI0
aasI105
(lp4140
(lp4141
I3
aI0
aa(lp4142
I2
aI0
aasI87
(lp4143
(lp4144
I3
aI1
aa(lp4145
I0
aI1
aasI16
(lp4146
(lp4147
I0
aI2
aa(lp4148
I1
aI2
aasI83
(lp4149
(lp4150
I0
aI0
aa(lp4151
I2
aI0
aasI54
(lp4152
(lp4153
I1
aI0
aa(lp4154
I0
aI0
aasI55
(lp4155
(lp4156
I3
aI0
aa(lp4157
I0
aI1
aasI6
(lp4158
(lp4159
I1
aI2
aa(lp4160
I1
aI2
aasI91
(lp4161
(lp4162
I1
aI0
aa(lp4163
I2
aI1
aasI93
(lp4164
(lp4165
I2
aI0
aa(lp4166
I4
aI0
aassI87
(dp4167
I65
(lp4168
(lp4169
I1
aI2
aa(lp4170
I4
aI2
aasI131
(lp4171
(lp4172
I0
aI3
aa(lp4173
I1
aI2
aasI100
(lp4174
(lp4175
I0
aI1
aa(lp4176
I4
aI1
aasI6
(lp4177
(lp4178
I1
aI3
aa(lp4179
I0
aI5
aasI134
(lp4180
(lp4181
I3
aI2
aa(lp4182
I1
aI1
aasI129
(lp4183
(lp4184
I2
aI2
aa(lp4185
I0
aI1
aasI40
(lp4186
(lp4187
I2
aI2
aa(lp4188
I1
aI2
aasI105
(lp4189
(lp4190
I1
aI0
aa(lp4191
I0
aI0
aasI7
(lp4192
(lp4193
I1
aI2
aa(lp4194
I1
aI1
aasI16
(lp4195
(lp4196
I1
aI3
aa(lp4197
I0
aI2
aasI91
(lp4198
(lp4199
I1
aI2
aa(lp4200
I1
aI4
aasI83
(lp4201
(lp4202
I2
aI0
aa(lp4203
I1
aI1
aasI9
(lp4204
(lp4205
I1
aI3
aa(lp4206
I1
aI0
aasI54
(lp4207
(lp4208
I0
aI1
aa(lp4209
I1
aI2
aasI55
(lp4210
(lp4211
I1
aI5
aa(lp4212
I3
aI2
aasI123
(lp4213
(lp4214
I0
aI1
aa(lp4215
I1
aI1
aasI93
(lp4216
(lp4217
I1
aI3
aa(lp4218
I1
aI0
aassI129
(dp4219
I65
(lp4220
(lp4221
I1
aI2
aa(lp4222
I1
aI1
aasI131
(lp4223
(lp4224
I2
aI2
aa(lp4225
I0
aI2
aasI100
(lp4226
(lp4227
I1
aI1
aa(lp4228
I1
aI3
aasI134
(lp4229
(lp4230
I0
aI0
aa(lp4231
I2
aI3
aasI6
(lp4232
(lp4233
I2
aI3
aa(lp4234
I1
aI1
aasI7
(lp4235
(lp4236
I1
aI1
aa(lp4237
I0
aI2
aasI40
(lp4238
(lp4239
I3
aI3
aa(lp4240
I0
aI3
aasI105
(lp4241
(lp4242
I0
aI1
aa(lp4243
I2
aI0
aasI87
(lp4244
(lp4245
I2
aI2
aa(lp4246
I1
aI0
aasI16
(lp4247
(lp4248
I0
aI2
aa(lp4249
I1
aI2
aasI91
(lp4250
(lp4251
I0
aI4
aa(lp4252
I2
aI0
aasI83
(lp4253
(lp4254
I2
aI0
aa(lp4255
I1
aI1
aasI54
(lp4256
(lp4257
I2
aI3
aa(lp4258
I0
aI2
aasI9
(lp4259
(lp4260
I0
aI1
aa(lp4261
I2
aI1
aasI55
(lp4262
(lp4263
I1
aI1
aa(lp4264
I0
aI2
aasI123
(lp4265
(lp4266
I1
aI3
aa(lp4267
I3
aI0
aasI93
(lp4268
(lp4269
I1
aI1
aa(lp4270
I3
aI2
aassI16
(dp4271
I129
(lp4272
(lp4273
I2
aI0
aa(lp4274
I2
aI1
aasI91
(lp4275
(lp4276
I2
aI2
aa(lp4277
I2
aI0
aasI100
(lp4278
(lp4279
I0
aI2
aa(lp4280
I1
aI0
aasI134
(lp4281
(lp4282
I4
aI1
aa(lp4283
I0
aI4
aasI6
(lp4284
(lp4285
I0
aI2
aa(lp4286
I4
aI2
aasI7
(lp4287
(lp4288
I0
aI3
aa(lp4289
I2
aI1
aasI40
(lp4290
(lp4291
I2
aI2
aa(lp4292
I1
aI2
aasI105
(lp4293
(lp4294
I3
aI1
aa(lp4295
I2
aI0
aasI87
(lp4296
(lp4297
I3
aI1
aa(lp4298
I2
aI0
aasI83
(lp4299
(lp4300
I0
aI0
aa(lp4301
I2
aI2
aasI9
(lp4302
(lp4303
I2
aI0
aa(lp4304
I2
aI1
aasI131
(lp4305
(lp4306
I1
aI4
aa(lp4307
I4
aI1
aasI54
(lp4308
(lp4309
I1
aI2
aa(lp4310
I2
aI0
aasI55
(lp4311
(lp4312
I2
aI0
aa(lp4313
I3
aI3
aasI123
(lp4314
(lp4315
I0
aI0
aa(lp4316
I3
aI3
aasI93
(lp4317
(lp4318
I3
aI0
aa(lp4319
I2
aI0
aasI65
(lp4320
(lp4321
I1
aI3
aa(lp4322
I3
aI0
aassI91
(dp4323
I65
(lp4324
(lp4325
I1
aI1
aa(lp4326
I2
aI2
aasI131
(lp4327
(lp4328
I2
aI2
aa(lp4329
I0
aI2
aasI100
(lp4330
(lp4331
I0
aI1
aa(lp4332
I2
aI3
aasI134
(lp4333
(lp4334
I0
aI5
aa(lp4335
I0
aI5
aasI6
(lp4336
(lp4337
I0
aI2
aa(lp4338
I1
aI1
aasI7
(lp4339
(lp4340
I0
aI4
aa(lp4341
I0
aI2
aasI40
(lp4342
(lp4343
I1
aI2
aa(lp4344
I0
aI4
aasI9
(lp4345
(lp4346
I0
aI1
aa(lp4347
I1
aI2
aasI87
(lp4348
(lp4349
I2
aI1
aa(lp4350
I4
aI1
aasI129
(lp4351
(lp4352
I4
aI0
aa(lp4353
I0
aI2
aasI16
(lp4354
(lp4355
I2
aI2
aa(lp4356
I0
aI2
aasI83
(lp4357
(lp4358
I1
aI1
aa(lp4359
I0
aI0
aasI54
(lp4360
(lp4361
I0
aI2
aa(lp4362
I1
aI2
aasI105
(lp4363
(lp4364
I2
aI1
aa(lp4365
I1
aI0
aasI55
(lp4366
(lp4367
I4
aI0
aa(lp4368
I1
aI1
aasI123
(lp4369
(lp4370
I1
aI2
aa(lp4371
I1
aI1
aasI93
(lp4372
(lp4373
I3
aI2
aa(lp4374
I2
aI1
aassI83
(dp4375
I129
(lp4376
(lp4377
I0
aI2
aa(lp4378
I1
aI1
aasI131
(lp4379
(lp4380
I1
aI4
aa(lp4381
I0
aI3
aasI100
(lp4382
(lp4383
I2
aI4
aa(lp4384
I0
aI2
aasI6
(lp4385
(lp4386
I2
aI1
aa(lp4387
I2
aI2
aasI134
(lp4388
(lp4389
I2
aI2
aa(lp4390
I2
aI1
aasI65
(lp4391
(lp4392
I2
aI0
aa(lp4393
I1
aI1
aasI40
(lp4394
(lp4395
I1
aI3
aa(lp4396
I0
aI1
aasI105
(lp4397
(lp4398
I1
aI2
aa(lp4399
I1
aI0
aasI87
(lp4400
(lp4401
I0
aI2
aa(lp4402
I1
aI1
aasI16
(lp4403
(lp4404
I0
aI0
aa(lp4405
I2
aI2
aasI123
(lp4406
(lp4407
I0
aI3
aa(lp4408
I0
aI2
aasI54
(lp4409
(lp4410
I1
aI1
aa(lp4411
I1
aI1
aasI9
(lp4412
(lp4413
I0
aI0
aa(lp4414
I0
aI2
aasI7
(lp4415
(lp4416
I0
aI0
aa(lp4417
I0
aI6
aasI55
(lp4418
(lp4419
I1
aI1
aa(lp4420
I2
aI2
aasI91
(lp4421
(lp4422
I1
aI1
aa(lp4423
I0
aI0
aasI93
(lp4424
(lp4425
I1
aI1
aa(lp4426
I1
aI2
aassI105
(dp4427
I123
(lp4428
(lp4429
I1
aI4
aa(lp4430
I2
aI2
aasI129
(lp4431
(lp4432
I1
aI0
aa(lp4433
I0
aI2
aasI131
(lp4434
(lp4435
I2
aI1
aa(lp4436
I0
aI1
aasI100
(lp4437
(lp4438
I1
aI2
aa(lp4439
I3
aI2
aasI134
(lp4440
(lp4441
I1
aI0
aa(lp4442
I3
aI1
aasI6
(lp4443
(lp4444
I3
aI3
aa(lp4445
I1
aI0
aasI65
(lp4446
(lp4447
I0
aI2
aa(lp4448
I0
aI0
aasI40
(lp4449
(lp4450
I0
aI1
aa(lp4451
I0
aI1
aasI9
(lp4452
(lp4453
I0
aI3
aa(lp4454
I0
aI2
aasI7
(lp4455
(lp4456
I0
aI1
aa(lp4457
I0
aI4
aasI16
(lp4458
(lp4459
I1
aI3
aa(lp4460
I0
aI2
aasI83
(lp4461
(lp4462
I2
aI1
aa(lp4463
I0
aI1
aasI54
(lp4464
(lp4465
I0
aI4
aa(lp4466
I4
aI0
aasI87
(lp4467
(lp4468
I0
aI1
aa(lp4469
I0
aI0
aasI55
(lp4470
(lp4471
I2
aI3
aa(lp4472
I2
aI3
aasI91
(lp4473
(lp4474
I1
aI2
aa(lp4475
I0
aI1
aasI93
(lp4476
(lp4477
I0
aI1
aa(lp4478
I0
aI0
aassI54
(dp4479
I123
(lp4480
(lp4481
I1
aI0
aa(lp4482
I1
aI0
aasI129
(lp4483
(lp4484
I3
aI2
aa(lp4485
I2
aI0
aasI131
(lp4486
(lp4487
I2
aI2
aa(lp4488
I1
aI2
aasI100
(lp4489
(lp4490
I2
aI1
aa(lp4491
I1
aI1
aasI134
(lp4492
(lp4493
I1
aI5
aa(lp4494
I2
aI1
aasI6
(lp4495
(lp4496
I1
aI0
aa(lp4497
I1
aI0
aasI7
(lp4498
(lp4499
I1
aI1
aa(lp4500
I1
aI3
aasI40
(lp4501
(lp4502
I1
aI4
aa(lp4503
I2
aI1
aasI9
(lp4504
(lp4505
I0
aI1
aa(lp4506
I0
aI0
aasI55
(lp4507
(lp4508
I3
aI0
aa(lp4509
I0
aI2
aasI16
(lp4510
(lp4511
I2
aI1
aa(lp4512
I0
aI2
aasI83
(lp4513
(lp4514
I1
aI1
aa(lp4515
I1
aI1
aasI105
(lp4516
(lp4517
I4
aI0
aa(lp4518
I0
aI4
aasI87
(lp4519
(lp4520
I1
aI0
aa(lp4521
I2
aI1
aasI91
(lp4522
(lp4523
I2
aI0
aa(lp4524
I2
aI1
aasI93
(lp4525
(lp4526
I0
aI1
aa(lp4527
I3
aI1
aasI65
(lp4528
(lp4529
I2
aI1
aa(lp4530
I2
aI1
aassI55
(dp4531
I65
(lp4532
(lp4533
I1
aI2
aa(lp4534
I2
aI1
aasI83
(lp4535
(lp4536
I1
aI1
aa(lp4537
I2
aI2
aasI91
(lp4538
(lp4539
I0
aI4
aa(lp4540
I1
aI1
aasI100
(lp4541
(lp4542
I3
aI0
aa(lp4543
I1
aI2
aasI134
(lp4544
(lp4545
I1
aI1
aa(lp4546
I1
aI4
aasI6
(lp4547
(lp4548
I0
aI4
aa(lp4549
I1
aI0
aasI7
(lp4550
(lp4551
I1
aI1
aa(lp4552
I4
aI4
aasI40
(lp4553
(lp4554
I1
aI0
aa(lp4555
I1
aI5
aasI9
(lp4556
(lp4557
I0
aI3
aa(lp4558
I1
aI0
aasI129
(lp4559
(lp4560
I1
aI1
aa(lp4561
I2
aI0
aasI16
(lp4562
(lp4563
I0
aI2
aa(lp4564
I3
aI3
aasI131
(lp4565
(lp4566
I1
aI2
aa(lp4567
I0
aI5
aasI105
(lp4568
(lp4569
I3
aI2
aa(lp4570
I3
aI2
aasI54
(lp4571
(lp4572
I0
aI3
aa(lp4573
I2
aI0
aasI87
(lp4574
(lp4575
I5
aI1
aa(lp4576
I2
aI3
aasI123
(lp4577
(lp4578
I2
aI5
aa(lp4579
I2
aI2
aasI93
(lp4580
(lp4581
I0
aI0
aa(lp4582
I1
aI3
aassI123
(dp4583
I129
(lp4584
(lp4585
I3
aI1
aa(lp4586
I0
aI3
aasI131
(lp4587
(lp4588
I3
aI2
aa(lp4589
I0
aI4
aasI100
(lp4590
(lp4591
I3
aI0
aa(lp4592
I0
aI1
aasI6
(lp4593
(lp4594
I2
aI5
aa(lp4595
I1
aI4
aasI134
(lp4596
(lp4597
I4
aI5
aa(lp4598
I0
aI0
aasI7
(lp4599
(lp4600
I4
aI1
aa(lp4601
I0
aI0
aasI40
(lp4602
(lp4603
I1
aI2
aa(lp4604
I2
aI2
aasI105
(lp4605
(lp4606
I4
aI1
aa(lp4607
I2
aI2
aasI55
(lp4608
(lp4609
I5
aI2
aa(lp4610
I2
aI2
aasI16
(lp4611
(lp4612
I0
aI0
aa(lp4613
I3
aI3
aasI83
(lp4614
(lp4615
I3
aI0
aa(lp4616
I2
aI0
aasI9
(lp4617
(lp4618
I1
aI1
aa(lp4619
I3
aI2
aasI54
(lp4620
(lp4621
I0
aI1
aa(lp4622
I0
aI1
aasI87
(lp4623
(lp4624
I1
aI0
aa(lp4625
I1
aI1
aasI91
(lp4626
(lp4627
I2
aI1
aa(lp4628
I1
aI1
aasI93
(lp4629
(lp4630
I3
aI0
aa(lp4631
I2
aI0
aasI65
(lp4632
(lp4633
I3
aI1
aa(lp4634
I2
aI0
aassI93
(dp4635
I129
(lp4636
(lp4637
I1
aI1
aa(lp4638
I2
aI3
aasI91
(lp4639
(lp4640
I2
aI3
aa(lp4641
I1
aI2
aasI100
(lp4642
(lp4643
I1
aI2
aa(lp4644
I0
aI2
aasI6
(lp4645
(lp4646
I1
aI1
aa(lp4647
I3
aI0
aasI134
(lp4648
(lp4649
I0
aI3
aa(lp4650
I2
aI1
aasI7
(lp4651
(lp4652
I0
aI1
aa(lp4653
I1
aI1
aasI40
(lp4654
(lp4655
I1
aI4
aa(lp4656
I1
aI3
aasI9
(lp4657
(lp4658
I0
aI2
aa(lp4659
I0
aI4
aasI87
(lp4660
(lp4661
I3
aI1
aa(lp4662
I0
aI1
aasI16
(lp4663
(lp4664
I0
aI3
aa(lp4665
I0
aI2
aasI83
(lp4666
(lp4667
I1
aI1
aa(lp4668
I2
aI1
aasI105
(lp4669
(lp4670
I1
aI0
aa(lp4671
I0
aI0
aasI131
(lp4672
(lp4673
I0
aI3
aa(lp4674
I2
aI0
aasI54
(lp4675
(lp4676
I1
aI0
aa(lp4677
I1
aI3
aasI55
(lp4678
(lp4679
I0
aI0
aa(lp4680
I3
aI1
aasI123
(lp4681
(lp4682
I0
aI3
aa(lp4683
I0
aI2
aasI65
(lp4684
(lp4685
I0
aI1
aa(lp4686
I0
aI2
aasssI2009
(dp4687
I65
(dp4688
I129
(lp4689
(lp4690
I0
aI0
aa(lp4691
I2
aI0
aasI131
(lp4692
(lp4693
I1
aI3
aa(lp4694
I3
aI2
aasI100
(lp4695
(lp4696
I1
aI3
aa(lp4697
I3
aI3
aasI134
(lp4698
(lp4699
I0
aI0
aa(lp4700
I0
aI1
aasI6
(lp4701
(lp4702
I0
aI1
aa(lp4703
I0
aI0
aasI7
(lp4704
(lp4705
I0
aI1
aa(lp4706
I2
aI3
aasI40
(lp4707
(lp4708
I0
aI0
aa(lp4709
I1
aI1
aasI9
(lp4710
(lp4711
I1
aI2
aa(lp4712
I0
aI2
aasI55
(lp4713
(lp4714
I0
aI1
aa(lp4715
I4
aI1
aasI112
(lp4716
(lp4717
I0
aI0
aa(lp4718
I2
aI2
aasI79
(lp4719
(lp4720
I3
aI0
aa(lp4721
I0
aI1
aasI16
(lp4722
(lp4723
I2
aI0
aa(lp4724
I1
aI5
aasI81
(lp4725
(lp4726
I1
aI0
aa(lp4727
I0
aI1
aasI123
(lp4728
(lp4729
I0
aI4
aa(lp4730
I2
aI0
aasI54
(lp4731
(lp4732
I1
aI0
aa(lp4733
I0
aI3
aasI87
(lp4734
(lp4735
I0
aI0
aa(lp4736
I1
aI1
aasI91
(lp4737
(lp4738
I0
aI0
aa(lp4739
I2
aI1
aassI131
(dp4740
I65
(lp4741
(lp4742
I3
aI1
aa(lp4743
I2
aI3
aasI91
(lp4744
(lp4745
I2
aI2
aa(lp4746
I3
aI1
aasI100
(lp4747
(lp4748
I2
aI4
aa(lp4749
I1
aI1
aasI134
(lp4750
(lp4751
I2
aI2
aa(lp4752
I2
aI4
aasI6
(lp4753
(lp4754
I2
aI3
aa(lp4755
I1
aI2
aasI129
(lp4756
(lp4757
I1
aI1
aa(lp4758
I4
aI1
aasI40
(lp4759
(lp4760
I0
aI3
aa(lp4761
I1
aI3
aasI9
(lp4762
(lp4763
I2
aI1
aa(lp4764
I2
aI1
aasI87
(lp4765
(lp4766
I2
aI1
aa(lp4767
I4
aI0
aasI112
(lp4768
(lp4769
I2
aI2
aa(lp4770
I0
aI1
aasI79
(lp4771
(lp4772
I2
aI3
aa(lp4773
I2
aI0
aasI16
(lp4774
(lp4775
I2
aI0
aa(lp4776
I1
aI3
aasI81
(lp4777
(lp4778
I3
aI3
aa(lp4779
I2
aI0
aasI54
(lp4780
(lp4781
I0
aI0
aa(lp4782
I1
aI5
aasI55
(lp4783
(lp4784
I4
aI2
aa(lp4785
I1
aI0
aasI7
(lp4786
(lp4787
I1
aI3
aa(lp4788
I1
aI1
aasI123
(lp4789
(lp4790
I2
aI1
aa(lp4791
I4
aI0
aassI112
(dp4792
I129
(lp4793
(lp4794
I2
aI1
aa(lp4795
I1
aI1
aasI123
(lp4796
(lp4797
I0
aI1
aa(lp4798
I1
aI1
aasI100
(lp4799
(lp4800
I1
aI1
aa(lp4801
I0
aI2
aasI134
(lp4802
(lp4803
I0
aI6
aa(lp4804
I0
aI4
aasI6
(lp4805
(lp4806
I0
aI5
aa(lp4807
I1
aI3
aasI65
(lp4808
(lp4809
I0
aI0
aa(lp4810
I2
aI2
aasI40
(lp4811
(lp4812
I1
aI2
aa(lp4813
I1
aI2
aasI9
(lp4814
(lp4815
I1
aI0
aa(lp4816
I0
aI0
aasI55
(lp4817
(lp4818
I2
aI5
aa(lp4819
I1
aI2
aasI79
(lp4820
(lp4821
I1
aI0
aa(lp4822
I2
aI1
aasI16
(lp4823
(lp4824
I2
aI4
aa(lp4825
I0
aI1
aasI81
(lp4826
(lp4827
I0
aI3
aa(lp4828
I1
aI0
aasI131
(lp4829
(lp4830
I2
aI2
aa(lp4831
I1
aI0
aasI54
(lp4832
(lp4833
I4
aI0
aa(lp4834
I0
aI3
aasI87
(lp4835
(lp4836
I3
aI0
aa(lp4837
I1
aI1
aasI7
(lp4838
(lp4839
I0
aI1
aa(lp4840
I3
aI1
aasI91
(lp4841
(lp4842
I0
aI2
aa(lp4843
I1
aI2
aassI6
(dp4844
I129
(lp4845
(lp4846
I2
aI1
aa(lp4847
I1
aI1
aasI131
(lp4848
(lp4849
I3
aI2
aa(lp4850
I2
aI1
aasI100
(lp4851
(lp4852
I0
aI0
aa(lp4853
I4
aI2
aasI134
(lp4854
(lp4855
I0
aI0
aa(lp4856
I2
aI2
aasI65
(lp4857
(lp4858
I1
aI0
aa(lp4859
I0
aI0
aasI40
(lp4860
(lp4861
I1
aI1
aa(lp4862
I1
aI1
aasI9
(lp4863
(lp4864
I2
aI2
aa(lp4865
I0
aI2
aasI7
(lp4866
(lp4867
I1
aI1
aa(lp4868
I0
aI3
aasI79
(lp4869
(lp4870
I4
aI0
aa(lp4871
I2
aI3
aasI112
(lp4872
(lp4873
I5
aI0
aa(lp4874
I3
aI1
aasI81
(lp4875
(lp4876
I2
aI2
aa(lp4877
I4
aI2
aasI91
(lp4878
(lp4879
I4
aI0
aa(lp4880
I2
aI3
aasI54
(lp4881
(lp4882
I2
aI2
aa(lp4883
I1
aI1
aasI55
(lp4884
(lp4885
I0
aI0
aa(lp4886
I3
aI0
aasI87
(lp4887
(lp4888
I3
aI2
aa(lp4889
I1
aI1
aasI123
(lp4890
(lp4891
I1
aI0
aa(lp4892
I3
aI0
aasI16
(lp4893
(lp4894
I4
aI0
aa(lp4895
I1
aI2
aassI134
(dp4896
I129
(lp4897
(lp4898
I4
aI1
aa(lp4899
I3
aI2
aasI123
(lp4900
(lp4901
I2
aI0
aa(lp4902
I1
aI0
aasI100
(lp4903
(lp4904
I1
aI2
aa(lp4905
I1
aI1
aasI6
(lp4906
(lp4907
I0
aI0
aa(lp4908
I2
aI2
aasI7
(lp4909
(lp4910
I1
aI1
aa(lp4911
I1
aI2
aasI40
(lp4912
(lp4913
I1
aI1
aa(lp4914
I2
aI3
aasI112
(lp4915
(lp4916
I6
aI0
aa(lp4917
I4
aI0
aasI87
(lp4918
(lp4919
I3
aI0
aa(lp4920
I3
aI4
aasI79
(lp4921
(lp4922
I2
aI2
aa(lp4923
I4
aI2
aasI16
(lp4924
(lp4925
I2
aI0
aa(lp4926
I2
aI2
aasI81
(lp4927
(lp4928
I3
aI0
aa(lp4929
I2
aI1
aasI131
(lp4930
(lp4931
I2
aI2
aa(lp4932
I4
aI2
aasI9
(lp4933
(lp4934
I0
aI2
aa(lp4935
I2
aI0
aasI54
(lp4936
(lp4937
I3
aI2
aa(lp4938
I2
aI1
aasI55
(lp4939
(lp4940
I0
aI0
aa(lp4941
I5
aI1
aasI91
(lp4942
(lp4943
I2
aI3
aa(lp4944
I0
aI1
aasI65
(lp4945
(lp4946
I0
aI0
aa(lp4947
I1
aI0
aassI7
(dp4948
I65
(lp4949
(lp4950
I1
aI0
aa(lp4951
I3
aI2
aasI123
(lp4952
(lp4953
I2
aI1
aa(lp4954
I1
aI1
aasI100
(lp4955
(lp4956
I1
aI4
aa(lp4957
I1
aI0
aasI134
(lp4958
(lp4959
I1
aI1
aa(lp4960
I2
aI1
aasI6
(lp4961
(lp4962
I1
aI1
aa(lp4963
I3
aI0
aasI129
(lp4964
(lp4965
I2
aI0
aa(lp4966
I4
aI1
aasI40
(lp4967
(lp4968
I1
aI5
aa(lp4969
I1
aI3
aasI9
(lp4970
(lp4971
I0
aI1
aa(lp4972
I1
aI2
aasI87
(lp4973
(lp4974
I1
aI0
aa(lp4975
I3
aI0
aasI112
(lp4976
(lp4977
I1
aI0
aa(lp4978
I1
aI3
aasI79
(lp4979
(lp4980
I4
aI0
aa(lp4981
I3
aI2
aasI16
(lp4982
(lp4983
I1
aI1
aa(lp4984
I1
aI4
aasI81
(lp4985
(lp4986
I0
aI0
aa(lp4987
I0
aI1
aasI131
(lp4988
(lp4989
I3
aI1
aa(lp4990
I1
aI1
aasI54
(lp4991
(lp4992
I2
aI0
aa(lp4993
I0
aI0
aasI55
(lp4994
(lp4995
I1
aI1
aa(lp4996
I4
aI1
aasI91
(lp4997
(lp4998
I1
aI1
aa(lp4999
I2
aI3
aassI40
(dp5000
I65
(lp5001
(lp5002
I0
aI0
aa(lp5003
I1
aI1
aasI131
(lp5004
(lp5005
I3
aI0
aa(lp5006
I3
aI1
aasI100
(lp5007
(lp5008
I0
aI1
aa(lp5009
I1
aI0
aasI6
(lp5010
(lp5011
I1
aI1
aa(lp5012
I1
aI1
aasI134
(lp5013
(lp5014
I1
aI1
aa(lp5015
I3
aI2
aasI7
(lp5016
(lp5017
I5
aI1
aa(lp5018
I3
aI1
aasI129
(lp5019
(lp5020
I5
aI1
aa(lp5021
I3
aI1
aasI9
(lp5022
(lp5023
I1
aI1
aa(lp5024
I2
aI1
aasI87
(lp5025
(lp5026
I2
aI1
aa(lp5027
I1
aI1
aasI79
(lp5028
(lp5029
I2
aI1
aa(lp5030
I1
aI1
aasI112
(lp5031
(lp5032
I2
aI1
aa(lp5033
I2
aI1
aasI81
(lp5034
(lp5035
I1
aI2
aa(lp5036
I3
aI0
aasI91
(lp5037
(lp5038
I2
aI1
aa(lp5039
I1
aI2
aasI54
(lp5040
(lp5041
I5
aI2
aa(lp5042
I3
aI1
aasI55
(lp5043
(lp5044
I3
aI0
aa(lp5045
I7
aI0
aasI123
(lp5046
(lp5047
I1
aI1
aa(lp5048
I2
aI0
aasI16
(lp5049
(lp5050
I0
aI0
aa(lp5051
I1
aI2
aassI9
(dp5052
I129
(lp5053
(lp5054
I3
aI0
aa(lp5055
I2
aI2
aasI131
(lp5056
(lp5057
I1
aI2
aa(lp5058
I1
aI2
aasI100
(lp5059
(lp5060
I3
aI3
aa(lp5061
I2
aI2
aasI6
(lp5062
(lp5063
I2
aI2
aa(lp5064
I2
aI0
aasI16
(lp5065
(lp5066
I2
aI1
aa(lp5067
I2
aI1
aasI65
(lp5068
(lp5069
I2
aI1
aa(lp5070
I2
aI0
aasI40
(lp5071
(lp5072
I1
aI1
aa(lp5073
I1
aI2
aasI7
(lp5074
(lp5075
I1
aI0
aa(lp5076
I2
aI1
aasI79
(lp5077
(lp5078
I2
aI1
aa(lp5079
I1
aI0
aasI112
(lp5080
(lp5081
I0
aI1
aa(lp5082
I0
aI0
aasI81
(lp5083
(lp5084
I1
aI0
aa(lp5085
I0
aI0
aasI91
(lp5086
(lp5087
I2
aI0
aa(lp5088
I4
aI1
aasI54
(lp5089
(lp5090
I2
aI0
aa(lp5091
I1
aI0
aasI55
(lp5092
(lp5093
I2
aI0
aa(lp5094
I2
aI4
aasI87
(lp5095
(lp5096
I0
aI1
aa(lp5097
I3
aI1
aasI123
(lp5098
(lp5099
I0
aI0
aa(lp5100
I2
aI0
aasI134
(lp5101
(lp5102
I2
aI0
aa(lp5103
I0
aI2
aassI87
(dp5104
I129
(lp5105
(lp5106
I3
aI3
aa(lp5107
I1
aI2
aasI131
(lp5108
(lp5109
I1
aI2
aa(lp5110
I0
aI4
aasI100
(lp5111
(lp5112
I3
aI2
aa(lp5113
I1
aI0
aasI6
(lp5114
(lp5115
I2
aI3
aa(lp5116
I1
aI1
aasI134
(lp5117
(lp5118
I0
aI3
aa(lp5119
I4
aI3
aasI7
(lp5120
(lp5121
I0
aI1
aa(lp5122
I0
aI3
aasI40
(lp5123
(lp5124
I1
aI2
aa(lp5125
I1
aI1
aasI9
(lp5126
(lp5127
I1
aI0
aa(lp5128
I1
aI3
aasI79
(lp5129
(lp5130
I0
aI1
aa(lp5131
I2
aI1
aasI112
(lp5132
(lp5133
I0
aI3
aa(lp5134
I1
aI1
aasI81
(lp5135
(lp5136
I2
aI0
aa(lp5137
I0
aI1
aasI91
(lp5138
(lp5139
I2
aI1
aa(lp5140
I2
aI0
aasI54
(lp5141
(lp5142
I2
aI1
aa(lp5143
I0
aI0
aasI55
(lp5144
(lp5145
I5
aI3
aa(lp5146
I1
aI6
aasI123
(lp5147
(lp5148
I2
aI4
aa(lp5149
I2
aI2
aasI16
(lp5150
(lp5151
I0
aI0
aa(lp5152
I1
aI2
aasI65
(lp5153
(lp5154
I0
aI0
aa(lp5155
I1
aI1
aassI129
(dp5156
I65
(lp5157
(lp5158
I0
aI0
aa(lp5159
I0
aI2
aasI131
(lp5160
(lp5161
I1
aI1
aa(lp5162
I1
aI4
aasI100
(lp5163
(lp5164
I1
aI0
aa(lp5165
I1
aI2
aasI134
(lp5166
(lp5167
I1
aI4
aa(lp5168
I2
aI3
aasI6
(lp5169
(lp5170
I1
aI2
aa(lp5171
I1
aI1
aasI7
(lp5172
(lp5173
I0
aI2
aa(lp5174
I1
aI4
aasI40
(lp5175
(lp5176
I1
aI5
aa(lp5177
I1
aI3
aasI9
(lp5178
(lp5179
I0
aI3
aa(lp5180
I2
aI2
aasI55
(lp5181
(lp5182
I3
aI2
aa(lp5183
I0
aI3
aasI79
(lp5184
(lp5185
I1
aI0
aa(lp5186
I0
aI0
aasI112
(lp5187
(lp5188
I1
aI2
aa(lp5189
I1
aI1
aasI81
(lp5190
(lp5191
I2
aI3
aa(lp5192
I0
aI0
aasI91
(lp5193
(lp5194
I1
aI2
aa(lp5195
I1
aI2
aasI54
(lp5196
(lp5197
I1
aI0
aa(lp5198
I0
aI0
aasI87
(lp5199
(lp5200
I3
aI3
aa(lp5201
I2
aI1
aasI123
(lp5202
(lp5203
I0
aI3
aa(lp5204
I2
aI1
aasI16
(lp5205
(lp5206
I1
aI1
aa(lp5207
I0
aI2
aassI79
(dp5208
I129
(lp5209
(lp5210
I0
aI1
aa(lp5211
I0
aI0
aasI123
(lp5212
(lp5213
I0
aI3
aa(lp5214
I0
aI0
aasI100
(lp5215
(lp5216
I0
aI4
aa(lp5217
I0
aI4
aasI134
(lp5218
(lp5219
I2
aI2
aa(lp5220
I2
aI4
aasI6
(lp5221
(lp5222
I0
aI4
aa(lp5223
I3
aI2
aasI7
(lp5224
(lp5225
I0
aI4
aa(lp5226
I2
aI3
aasI40
(lp5227
(lp5228
I1
aI2
aa(lp5229
I1
aI1
aasI9
(lp5230
(lp5231
I1
aI2
aa(lp5232
I0
aI1
aasI55
(lp5233
(lp5234
I0
aI2
aa(lp5235
I3
aI1
aasI112
(lp5236
(lp5237
I0
aI1
aa(lp5238
I1
aI2
aasI16
(lp5239
(lp5240
I0
aI0
aa(lp5241
I1
aI2
aasI81
(lp5242
(lp5243
I0
aI1
aa(lp5244
I2
aI0
aasI131
(lp5245
(lp5246
I3
aI2
aa(lp5247
I0
aI2
aasI54
(lp5248
(lp5249
I3
aI0
aa(lp5250
I2
aI1
aasI87
(lp5251
(lp5252
I1
aI0
aa(lp5253
I1
aI2
aasI91
(lp5254
(lp5255
I1
aI1
aa(lp5256
I1
aI1
aasI65
(lp5257
(lp5258
I0
aI3
aa(lp5259
I1
aI0
aassI16
(dp5260
I65
(lp5261
(lp5262
I0
aI2
aa(lp5263
I5
aI1
aasI131
(lp5264
(lp5265
I0
aI2
aa(lp5266
I3
aI1
aasI100
(lp5267
(lp5268
I1
aI3
aa(lp5269
I1
aI3
aasI6
(lp5270
(lp5271
I0
aI4
aa(lp5272
I2
aI1
aasI134
(lp5273
(lp5274
I0
aI2
aa(lp5275
I2
aI2
aasI7
(lp5276
(lp5277
I1
aI1
aa(lp5278
I4
aI1
aasI40
(lp5279
(lp5280
I0
aI0
aa(lp5281
I2
aI1
aasI9
(lp5282
(lp5283
I1
aI2
aa(lp5284
I1
aI2
aasI87
(lp5285
(lp5286
I0
aI0
aa(lp5287
I2
aI1
aasI129
(lp5288
(lp5289
I1
aI1
aa(lp5290
I2
aI0
aasI79
(lp5291
(lp5292
I0
aI0
aa(lp5293
I2
aI1
aasI112
(lp5294
(lp5295
I4
aI2
aa(lp5296
I1
aI0
aasI81
(lp5297
(lp5298
I1
aI1
aa(lp5299
I2
aI2
aasI123
(lp5300
(lp5301
I3
aI1
aa(lp5302
I1
aI1
aasI54
(lp5303
(lp5304
I1
aI1
aa(lp5305
I1
aI0
aasI55
(lp5306
(lp5307
I0
aI1
aa(lp5308
I2
aI0
aasI91
(lp5309
(lp5310
I3
aI0
aa(lp5311
I2
aI1
aassI81
(dp5312
I129
(lp5313
(lp5314
I3
aI2
aa(lp5315
I0
aI0
aasI131
(lp5316
(lp5317
I3
aI3
aa(lp5318
I0
aI2
aasI100
(lp5319
(lp5320
I1
aI1
aa(lp5321
I1
aI0
aasI134
(lp5322
(lp5323
I0
aI3
aa(lp5324
I1
aI2
aasI6
(lp5325
(lp5326
I2
aI2
aa(lp5327
I2
aI4
aasI65
(lp5328
(lp5329
I0
aI1
aa(lp5330
I1
aI0
aasI40
(lp5331
(lp5332
I2
aI1
aa(lp5333
I0
aI3
aasI9
(lp5334
(lp5335
I0
aI1
aa(lp5336
I0
aI0
aasI55
(lp5337
(lp5338
I1
aI1
aa(lp5339
I1
aI0
aasI79
(lp5340
(lp5341
I1
aI0
aa(lp5342
I0
aI2
aasI112
(lp5343
(lp5344
I3
aI0
aa(lp5345
I0
aI1
aasI91
(lp5346
(lp5347
I0
aI2
aa(lp5348
I3
aI3
aasI54
(lp5349
(lp5350
I2
aI1
aa(lp5351
I1
aI1
aasI87
(lp5352
(lp5353
I0
aI2
aa(lp5354
I1
aI0
aasI7
(lp5355
(lp5356
I0
aI0
aa(lp5357
I1
aI0
aasI123
(lp5358
(lp5359
I2
aI1
aa(lp5360
I1
aI0
aasI16
(lp5361
(lp5362
I1
aI1
aa(lp5363
I2
aI2
aassI123
(dp5364
I129
(lp5365
(lp5366
I3
aI0
aa(lp5367
I1
aI2
aasI131
(lp5368
(lp5369
I1
aI2
aa(lp5370
I0
aI4
aasI100
(lp5371
(lp5372
I0
aI0
aa(lp5373
I5
aI1
aasI134
(lp5374
(lp5375
I0
aI2
aa(lp5376
I0
aI1
aasI6
(lp5377
(lp5378
I0
aI1
aa(lp5379
I0
aI3
aasI65
(lp5380
(lp5381
I4
aI0
aa(lp5382
I0
aI2
aasI40
(lp5383
(lp5384
I1
aI1
aa(lp5385
I0
aI2
aasI9
(lp5386
(lp5387
I0
aI0
aa(lp5388
I0
aI2
aasI55
(lp5389
(lp5390
I1
aI0
aa(lp5391
I2
aI1
aasI79
(lp5392
(lp5393
I3
aI0
aa(lp5394
I0
aI0
aasI112
(lp5395
(lp5396
I1
aI0
aa(lp5397
I1
aI1
aasI81
(lp5398
(lp5399
I1
aI2
aa(lp5400
I0
aI1
aasI54
(lp5401
(lp5402
I5
aI1
aa(lp5403
I2
aI0
aasI87
(lp5404
(lp5405
I4
aI2
aa(lp5406
I2
aI2
aasI7
(lp5407
(lp5408
I1
aI2
aa(lp5409
I1
aI1
aasI91
(lp5410
(lp5411
I1
aI1
aa(lp5412
I2
aI1
aasI16
(lp5413
(lp5414
I1
aI3
aa(lp5415
I1
aI1
aassI54
(dp5416
I129
(lp5417
(lp5418
I0
aI1
aa(lp5419
I0
aI0
aasI131
(lp5420
(lp5421
I0
aI0
aa(lp5422
I5
aI1
aasI100
(lp5423
(lp5424
I1
aI3
aa(lp5425
I0
aI1
aasI6
(lp5426
(lp5427
I2
aI2
aa(lp5428
I1
aI1
aasI134
(lp5429
(lp5430
I2
aI3
aa(lp5431
I1
aI2
aasI7
(lp5432
(lp5433
I0
aI2
aa(lp5434
I0
aI0
aasI40
(lp5435
(lp5436
I2
aI5
aa(lp5437
I1
aI3
aasI9
(lp5438
(lp5439
I0
aI2
aa(lp5440
I0
aI1
aasI55
(lp5441
(lp5442
I1
aI0
aa(lp5443
I3
aI0
aasI79
(lp5444
(lp5445
I0
aI3
aa(lp5446
I1
aI2
aasI112
(lp5447
(lp5448
I0
aI4
aa(lp5449
I3
aI0
aasI81
(lp5450
(lp5451
I1
aI2
aa(lp5452
I1
aI1
aasI91
(lp5453
(lp5454
I1
aI3
aa(lp5455
I2
aI2
aasI87
(lp5456
(lp5457
I1
aI2
aa(lp5458
I0
aI0
aasI123
(lp5459
(lp5460
I1
aI5
aa(lp5461
I0
aI2
aasI16
(lp5462
(lp5463
I1
aI1
aa(lp5464
I0
aI1
aasI65
(lp5465
(lp5466
I0
aI1
aa(lp5467
I3
aI0
aassI55
(dp5468
I16
(lp5469
(lp5470
I1
aI0
aa(lp5471
I0
aI2
aasI131
(lp5472
(lp5473
I2
aI4
aa(lp5474
I0
aI1
aasI100
(lp5475
(lp5476
I2
aI2
aa(lp5477
I0
aI0
aasI6
(lp5478
(lp5479
I0
aI0
aa(lp5480
I0
aI3
aasI134
(lp5481
(lp5482
I0
aI0
aa(lp5483
I1
aI5
aasI7
(lp5484
(lp5485
I1
aI1
aa(lp5486
I1
aI4
aasI40
(lp5487
(lp5488
I0
aI3
aa(lp5489
I0
aI7
aasI9
(lp5490
(lp5491
I0
aI2
aa(lp5492
I4
aI2
aasI129
(lp5493
(lp5494
I2
aI3
aa(lp5495
I3
aI0
aasI79
(lp5496
(lp5497
I2
aI0
aa(lp5498
I1
aI3
aasI112
(lp5499
(lp5500
I5
aI2
aa(lp5501
I2
aI1
aasI81
(lp5502
(lp5503
I1
aI1
aa(lp5504
I0
aI1
aasI91
(lp5505
(lp5506
I1
aI2
aa(lp5507
I2
aI1
aasI54
(lp5508
(lp5509
I0
aI1
aa(lp5510
I0
aI3
aasI87
(lp5511
(lp5512
I3
aI5
aa(lp5513
I6
aI1
aasI123
(lp5514
(lp5515
I0
aI1
aa(lp5516
I1
aI2
aasI65
(lp5517
(lp5518
I1
aI0
aa(lp5519
I1
aI4
aassI100
(dp5520
I65
(lp5521
(lp5522
I3
aI1
aa(lp5523
I3
aI3
aasI131
(lp5524
(lp5525
I4
aI2
aa(lp5526
I1
aI1
aasI6
(lp5527
(lp5528
I0
aI0
aa(lp5529
I2
aI4
aasI16
(lp5530
(lp5531
I3
aI1
aa(lp5532
I3
aI1
aasI7
(lp5533
(lp5534
I4
aI1
aa(lp5535
I0
aI1
aasI40
(lp5536
(lp5537
I1
aI0
aa(lp5538
I0
aI1
aasI9
(lp5539
(lp5540
I3
aI3
aa(lp5541
I2
aI2
aasI55
(lp5542
(lp5543
I2
aI2
aa(lp5544
I0
aI0
aasI129
(lp5545
(lp5546
I0
aI1
aa(lp5547
I2
aI1
aasI79
(lp5548
(lp5549
I4
aI0
aa(lp5550
I4
aI0
aasI112
(lp5551
(lp5552
I1
aI1
aa(lp5553
I2
aI0
aasI81
(lp5554
(lp5555
I1
aI1
aa(lp5556
I0
aI1
aasI123
(lp5557
(lp5558
I0
aI0
aa(lp5559
I1
aI5
aasI54
(lp5560
(lp5561
I3
aI1
aa(lp5562
I1
aI0
aasI87
(lp5563
(lp5564
I2
aI3
aa(lp5565
I0
aI1
aasI91
(lp5566
(lp5567
I1
aI1
aa(lp5568
I0
aI0
aasI134
(lp5569
(lp5570
I2
aI1
aa(lp5571
I1
aI1
aassI91
(dp5572
I65
(lp5573
(lp5574
I0
aI0
aa(lp5575
I1
aI2
aasI131
(lp5576
(lp5577
I2
aI2
aa(lp5578
I1
aI3
aasI100
(lp5579
(lp5580
I1
aI1
aa(lp5581
I0
aI0
aasI6
(lp5582
(lp5583
I0
aI4
aa(lp5584
I3
aI2
aasI134
(lp5585
(lp5586
I3
aI2
aa(lp5587
I1
aI0
aasI7
(lp5588
(lp5589
I1
aI1
aa(lp5590
I3
aI2
aasI40
(lp5591
(lp5592
I1
aI2
aa(lp5593
I2
aI1
aasI9
(lp5594
(lp5595
I0
aI2
aa(lp5596
I1
aI4
aasI87
(lp5597
(lp5598
I1
aI2
aa(lp5599
I0
aI2
aasI129
(lp5600
(lp5601
I2
aI1
aa(lp5602
I2
aI1
aasI79
(lp5603
(lp5604
I1
aI1
aa(lp5605
I1
aI1
aasI112
(lp5606
(lp5607
I2
aI0
aa(lp5608
I2
aI1
aasI81
(lp5609
(lp5610
I2
aI0
aa(lp5611
I3
aI3
aasI54
(lp5612
(lp5613
I3
aI1
aa(lp5614
I2
aI2
aasI55
(lp5615
(lp5616
I2
aI1
aa(lp5617
I1
aI2
aasI123
(lp5618
(lp5619
I1
aI1
aa(lp5620
I1
aI2
aasI16
(lp5621
(lp5622
I0
aI3
aa(lp5623
I1
aI2
aasssI2010
(dp5624
s.