(dp1
I2004
(dp2
I129
(dp3
I16
(lp4
I2
aI5
a(I2
I0
tp5
asI131
(lp6
I0
aI3
a(I5
I1
tp7
asI100
(lp8
I1
aI2
a(I1
I0
tp9
asI6
(lp10
I2
aI2
a(I0
I4
tp11
asI134
(lp12
I1
aI4
a(I0
I4
tp13
asI7
(lp14
I2
aI2
a(I0
I1
tp15
asI40
(lp16
I1
aI3
a(I1
I3
tp17
asI9
(lp18
I2
aI3
a(I0
I2
tp19
asI55
(lp20
I0
aI3
a(I1
I0
tp21
asI76
(lp22
I1
aI1
a(I2
I1
tp23
asI79
(lp24
I3
aI1
a(I1
I2
tp25
asI112
(lp26
I1
aI1
a(I3
I1
tp27
asI81
(lp28
I0
aI1
a(I2
I6
tp29
asI83
(lp30
I2
aI1
a(I1
I1
tp31
asI54
(lp32
(I2
I2
tp33
a(I2
I2
tp34
asI87
(lp35
I3
aI0
a(I2
I2
tp36
asI102
(lp37
I0
aI1
a(I1
I3
tp38
assI131
(dp39
I129
(lp40
I3
aI0
a(I1
I5
tp41
asI100
(lp42
I1
aI3
a(I1
I0
tp43
asI134
(lp44
I2
aI1
a(I2
I3
tp45
asI102
(lp46
I2
aI1
a(I4
I0
tp47
asI7
(lp48
(I2
I1
tp49
a(I1
I2
tp50
asI40
(lp51
I0
aI2
a(I0
I3
tp52
asI9
(lp53
I3
aI0
a(I0
I3
tp54
asI55
(lp55
I0
aI3
a(I1
I0
tp56
asI76
(lp57
I2
aI1
a(I0
I0
tp58
asI79
(lp59
I0
aI4
a(I0
I1
tp60
asI112
(lp61
I0
aI1
a(I0
I1
tp62
asI81
(lp63
I4
aI3
a(I2
I0
tp64
asI83
(lp65
I5
aI0
a(I2
I1
tp66
asI54
(lp67
I2
aI3
a(I1
I3
tp68
asI87
(lp69
I2
aI1
a(I0
I1
tp70
asI6
(lp71
I1
aI2
a(I2
I2
tp72
asI16
(lp73
I3
aI0
a(I0
I0
tp74
assI100
(dp75
I112
(lp76
I4
aI0
a(I1
I1
tp77
asI131
(lp78
I3
aI1
a(I0
I1
tp79
asI134
(lp80
I1
aI1
a(I1
I2
tp81
asI6
(lp82
I0
aI3
a(I1
I0
tp83
asI7
(lp84
I2
aI0
a(I2
I3
tp85
asI40
(lp86
(I0
I2
tp87
a(I0
I3
tp88
asI9
(lp89
I1
aI2
a(I2
I1
tp90
asI55
(lp91
I0
aI2
a(I1
I2
tp92
asI76
(lp93
I1
aI2
a(I2
I1
tp94
asI129
(lp95
I2
aI1
a(I0
I1
tp96
asI79
(lp97
I4
aI3
a(I3
I1
tp98
asI16
(lp99
I0
aI2
a(I2
I1
tp100
asI81
(lp101
I1
aI2
a(I2
I1
tp102
asI83
(lp103
I0
aI2
a(I4
I3
tp104
asI54
(lp105
I2
aI1
a(I1
I4
tp106
asI87
(lp107
I3
aI1
a(I0
I0
tp108
asI102
(lp109
I6
aI0
a(I3
I0
tp110
assI6
(dp111
I129
(lp112
I2
aI2
a(I4
I0
tp113
asI131
(lp114
I2
aI1
a(I2
I2
tp115
asI100
(lp116
I3
aI0
a(I0
I1
tp117
asI102
(lp118
I2
aI0
a(I3
I0
tp119
asI134
(lp120
I2
aI2
a(I2
I1
tp121
asI7
(lp122
I0
aI1
a(I0
I1
tp123
asI40
(lp124
I4
aI1
a(I0
I2
tp125
asI112
(lp126
I4
aI1
a(I3
I1
tp127
asI87
(lp128
I1
aI1
a(I5
I1
tp129
asI76
(lp130
I0
aI0
a(I2
I0
tp131
asI79
(lp132
I2
aI2
a(I4
I2
tp133
asI16
(lp134
I0
aI3
a(I1
I1
tp135
asI81
(lp136
I0
aI2
a(I2
I0
tp137
asI83
(lp138
I3
aI2
a(I0
I1
tp139
asI9
(lp140
I0
aI3
a(I3
I3
tp141
asI54
(lp142
I1
aI3
a(I3
I3
tp143
asI55
(lp144
(I2
I1
tp145
a(I3
I0
tp146
assI134
(dp147
I129
(lp148
I4
aI1
a(I4
I0
tp149
asI131
(lp150
I1
aI2
a(I3
I2
tp151
asI100
(lp152
I1
aI1
a(I2
I1
tp153
asI6
(lp154
I2
aI2
a(I1
I2
tp155
asI102
(lp156
I4
aI0
a(I3
I2
tp157
asI7
(lp158
I2
aI0
a(I0
I1
tp159
asI40
(lp160
I1
aI2
a(I0
I1
tp161
asI9
(lp162
(I1
I0
tp163
a(I1
I2
tp164
asI87
(lp165
I1
aI3
a(I2
I0
tp166
asI76
(lp167
I1
aI1
a(I2
I1
tp168
asI112
(lp169
I6
aI0
a(I4
I1
tp170
asI79
(lp171
I4
aI1
a(I2
I1
tp172
asI16
(lp173
I2
aI1
a(I1
I2
tp174
asI81
(lp175
I1
aI2
a(I0
I0
tp176
asI83
(lp177
I1
aI2
a(I3
I0
tp178
asI54
(lp179
I1
aI1
a(I0
I1
tp180
asI55
(lp181
I3
aI0
a(I4
I1
tp182
assI7
(dp183
I129
(lp184
I2
aI2
a(I1
I0
tp185
asI131
(lp186
(I1
I2
tp187
a(I2
I1
tp188
asI100
(lp189
I0
aI2
a(I3
I2
tp190
asI134
(lp191
I0
aI2
a(I1
I0
tp192
asI6
(lp193
I1
aI0
a(I1
I0
tp194
asI40
(lp195
I2
aI2
a(I0
I5
tp196
asI112
(lp197
I2
aI0
a(I2
I2
tp198
asI87
(lp199
I3
aI2
a(I1
I1
tp200
asI76
(lp201
I0
aI1
a(I4
I2
tp202
asI79
(lp203
I2
aI2
a(I2
I2
tp204
asI16
(lp205
I0
aI2
a(I0
I2
tp206
asI81
(lp207
I1
aI1
a(I3
I0
tp208
asI83
(lp209
I0
aI1
a(I1
I1
tp210
asI9
(lp211
I0
aI1
a(I2
I1
tp212
asI54
(lp213
I1
aI0
a(I2
I1
tp214
asI55
(lp215
I1
aI1
a(I3
I1
tp216
asI102
(lp217
I1
aI1
a(I2
I1
tp218
assI40
(dp219
I129
(lp220
I3
aI1
a(I3
I1
tp221
asI131
(lp222
I2
aI0
a(I3
I0
tp223
asI100
(lp224
(I2
I0
tp225
a(I3
I0
tp226
asI134
(lp227
I2
aI1
a(I1
I0
tp228
asI6
(lp229
I1
aI4
a(I2
I0
tp230
asI7
(lp231
I2
aI2
a(I5
I0
tp232
asI9
(lp233
I0
aI1
a(I0
I1
tp234
asI55
(lp235
I3
aI0
a(I1
I0
tp236
asI76
(lp237
I3
aI1
a(I4
I0
tp238
asI79
(lp239
I2
aI2
a(I6
I3
tp240
asI112
(lp241
I3
aI1
a(I1
I0
tp242
asI81
(lp243
I4
aI2
a(I4
I2
tp244
asI83
(lp245
I1
aI0
a(I1
I3
tp246
asI54
(lp247
I1
aI1
a(I0
I0
tp248
asI87
(lp249
I0
aI2
a(I2
I1
tp250
asI102
(lp251
I2
aI0
a(I3
I1
tp252
asI16
(lp253
I2
aI2
a(I3
I1
tp254
assI9
(dp255
I129
(lp256
I3
aI2
a(I2
I0
tp257
asI131
(lp258
I0
aI3
a(I3
I0
tp259
asI100
(lp260
I2
aI1
a(I1
I2
tp261
asI134
(lp262
(I0
I1
tp263
a(I2
I1
tp264
asI102
(lp265
I0
aI2
a(I2
I2
tp266
asI7
(lp267
I1
aI0
a(I1
I2
tp268
asI40
(lp269
I1
aI0
a(I1
I0
tp270
asI112
(lp271
I1
aI1
a(I3
I2
tp272
asI87
(lp273
I3
aI2
a(I3
I1
tp274
asI76
(lp275
I2
aI1
a(I0
I2
tp276
asI79
(lp277
I2
aI0
a(I4
I1
tp278
asI16
(lp279
I3
aI2
a(I0
I3
tp280
asI81
(lp281
I2
aI1
a(I1
I2
tp282
asI83
(lp283
I2
aI1
a(I2
I0
tp284
asI54
(lp285
I1
aI3
a(I1
I4
tp286
asI55
(lp287
I0
aI1
a(I1
I0
tp288
asI6
(lp289
I3
aI0
a(I3
I3
tp290
assI87
(dp291
I129
(lp292
I0
aI3
a(I2
I2
tp293
asI131
(lp294
I1
aI2
a(I1
I0
tp295
asI100
(lp296
I1
aI3
a(I0
I0
tp297
asI134
(lp298
I3
aI1
a(I0
I2
tp299
asI102
(lp300
I2
aI2
a(I0
I0
tp301
asI7
(lp302
I2
aI3
a(I1
I1
tp303
asI40
(lp304
I2
aI0
a(I1
I2
tp305
asI9
(lp306
I2
aI3
a(I1
I3
tp307
asI76
(lp308
I2
aI0
a(I0
I1
tp309
asI79
(lp310
I2
aI1
a(I0
I0
tp311
asI112
(lp312
I1
aI1
a(I3
I2
tp313
asI81
(lp314
I1
aI1
a(I1
I1
tp315
asI83
(lp316
(I0
I0
tp317
a(I1
I0
tp318
asI54
(lp319
I0
aI6
a(I0
I0
tp320
asI55
(lp321
I0
aI2
a(I1
I2
tp322
asI6
(lp323
I1
aI1
a(I1
I5
tp324
asI16
(lp325
I0
aI1
a(I2
I0
tp326
assI76
(dp327
I129
(lp328
I1
aI1
a(I1
I2
tp329
asI131
(lp330
I1
aI2
a(I0
I0
tp331
asI100
(lp332
I2
aI1
a(I1
I2
tp333
asI6
(lp334
I0
aI0
a(I0
I2
tp335
asI102
(lp336
I3
aI2
a(I2
I1
tp337
asI7
(lp338
I1
aI0
a(I2
I4
tp339
asI40
(lp340
I1
aI3
a(I0
I4
tp341
asI9
(lp342
I1
aI2
a(I2
I0
tp343
asI55
(lp344
I1
aI3
a(I0
I2
tp345
asI112
(lp346
I3
aI0
a(I2
I1
tp347
asI79
(lp348
(I1
I3
tp349
a(I3
I1
tp350
asI16
(lp351
I2
aI3
a(I1
I1
tp352
asI81
(lp353
I2
aI0
a(I2
I3
tp354
asI83
(lp355
I2
aI1
a(I2
I0
tp356
asI54
(lp357
I0
aI2
a(I1
I1
tp358
asI87
(lp359
I0
aI2
a(I1
I0
tp360
asI134
(lp361
I1
aI1
a(I1
I2
tp362
assI79
(dp363
I112
(lp364
I3
aI0
a(I3
I2
tp365
asI131
(lp366
I4
aI0
a(I1
I0
tp367
asI100
(lp368
I3
aI4
a(I1
I3
tp369
asI134
(lp370
I1
aI4
a(I1
I2
tp371
asI6
(lp372
I2
aI2
a(I2
I4
tp373
asI7
(lp374
I2
aI2
a(I2
I2
tp375
asI129
(lp376
I1
aI3
a(I2
I1
tp377
asI9
(lp378
I0
aI2
a(I1
I4
tp379
asI55
(lp380
I1
aI1
a(I0
I1
tp381
asI76
(lp382
(I3
I1
tp383
a(I1
I3
tp384
asI16
(lp385
I1
aI1
a(I4
I2
tp386
asI40
(lp387
I2
aI2
a(I3
I6
tp388
asI83
(lp389
I1
aI2
a(I1
I3
tp390
asI54
(lp391
I0
aI0
a(I1
I2
tp392
asI87
(lp393
I1
aI2
a(I0
I0
tp394
asI102
(lp395
I2
aI0
a(I3
I0
tp396
asI81
(lp397
I1
aI0
a(I1
I2
tp398
assI112
(dp399
I129
(lp400
I1
aI1
a(I1
I3
tp401
asI131
(lp402
I1
aI0
a(I1
I0
tp403
asI100
(lp404
I0
aI4
a(I1
I1
tp405
asI6
(lp406
I1
aI4
a(I1
I3
tp407
asI102
(lp408
(I0
I0
tp409
a(I0
I0
tp410
asI7
(lp411
I0
aI2
a(I2
I2
tp412
asI40
(lp413
I1
aI3
a(I0
I1
tp414
asI9
(lp415
I1
aI1
a(I2
I3
tp416
asI87
(lp417
I1
aI1
a(I2
I3
tp418
asI76
(lp419
I0
aI3
a(I1
I2
tp420
asI79
(lp421
I0
aI3
a(I2
I3
tp422
asI16
(lp423
I2
aI0
a(I0
I1
tp424
asI81
(lp425
I1
aI2
a(I0
I5
tp426
asI83
(lp427
I2
aI3
a(I1
I3
tp428
asI54
(lp429
I1
aI3
a(I1
I3
tp430
asI55
(lp431
I2
aI2
a(I0
I0
tp432
asI134
(lp433
I0
aI6
a(I1
I4
tp434
assI81
(dp435
I112
(lp436
I2
aI1
a(I5
I0
tp437
asI131
(lp438
I3
aI4
a(I0
I2
tp439
asI100
(lp440
I2
aI1
a(I1
I2
tp441
asI134
(lp442
I2
aI1
a(I0
I0
tp443
asI6
(lp444
I2
aI0
a(I0
I2
tp445
asI7
(lp446
I1
aI1
a(I0
I3
tp447
asI129
(lp448
I1
aI0
a(I6
I2
tp449
asI9
(lp450
I1
aI2
a(I2
I1
tp451
asI55
(lp452
I0
aI2
a(I2
I0
tp453
asI76
(lp454
I0
aI2
a(I3
I2
tp455
asI79
(lp456
I0
aI1
a(I2
I1
tp457
asI16
(lp458
(I2
I4
tp459
a(I2
I3
tp460
asI40
(lp461
I2
aI4
a(I2
I4
tp462
asI83
(lp463
I1
aI1
a(I0
I0
tp464
asI54
(lp465
I1
aI1
a(I0
I3
tp466
asI87
(lp467
I1
aI1
a(I1
I1
tp468
asI102
(lp469
I3
aI1
a(I0
I2
tp470
assI83
(dp471
I129
(lp472
I1
aI2
a(I1
I1
tp473
asI131
(lp474
I0
aI5
a(I1
I2
tp475
asI100
(lp476
I2
aI0
a(I3
I4
tp477
asI134
(lp478
I2
aI1
a(I0
I3
tp479
asI6
(lp480
I2
aI3
a(I1
I0
tp481
asI7
(lp482
I1
aI0
a(I1
I1
tp483
asI40
(lp484
I0
aI1
a(I3
I1
tp485
asI112
(lp486
I3
aI2
a(I3
I1
tp487
asI87
(lp488
(I0
I0
tp489
a(I0
I1
tp490
asI76
(lp491
I1
aI2
a(I0
I2
tp492
asI79
(lp493
I2
aI1
a(I3
I1
tp494
asI16
(lp495
I0
aI2
a(I1
I2
tp496
asI81
(lp497
I1
aI1
a(I0
I0
tp498
asI9
(lp499
I1
aI2
a(I0
I2
tp500
asI54
(lp501
I1
aI0
a(I0
I3
tp502
asI55
(lp503
I1
aI0
a(I0
I1
tp504
asI102
(lp505
I1
aI1
a(I1
I1
tp506
assI54
(dp507
I129
(lp508
(I2
I2
tp509
a(I2
I2
tp510
asI131
(lp511
I3
aI2
a(I3
I1
tp512
asI100
(lp513
I1
aI2
a(I4
I1
tp514
asI134
(lp515
I1
aI1
a(I1
I0
tp516
asI6
(lp517
I3
aI1
a(I3
I3
tp518
asI7
(lp519
I0
aI1
a(I1
I2
tp520
asI40
(lp521
I1
aI1
a(I0
I0
tp522
asI112
(lp523
I3
aI1
a(I3
I1
tp524
asI87
(lp525
I6
aI0
a(I0
I0
tp526
asI76
(lp527
I2
aI0
a(I1
I1
tp528
asI79
(lp529
I0
aI0
a(I2
I1
tp530
asI16
(lp531
I0
aI0
a(I0
I1
tp532
asI81
(lp533
I1
aI1
a(I3
I0
tp534
asI83
(lp535
I0
aI1
a(I3
I0
tp536
asI9
(lp537
I3
aI1
a(I4
I1
tp538
asI55
(lp539
I1
aI0
a(I0
I0
tp540
asI102
(lp541
I1
aI1
a(I1
I2
tp542
assI55
(dp543
I129
(lp544
I3
aI0
a(I0
I1
tp545
asI131
(lp546
I3
aI0
a(I0
I1
tp547
asI100
(lp548
I2
aI0
a(I2
I1
tp549
asI6
(lp550
(I1
I2
tp551
a(I0
I3
tp552
asI134
(lp553
I0
aI3
a(I1
I4
tp554
asI7
(lp555
I1
aI1
a(I1
I3
tp556
asI40
(lp557
I0
aI3
a(I0
I1
tp558
asI9
(lp559
I1
aI0
a(I0
I1
tp560
asI76
(lp561
I3
aI1
a(I2
I0
tp562
asI79
(lp563
I1
aI1
a(I1
I0
tp564
asI112
(lp565
I2
aI2
a(I0
I0
tp566
asI81
(lp567
I2
aI0
a(I0
I2
tp568
asI83
(lp569
I0
aI1
a(I1
I0
tp570
asI54
(lp571
I0
aI1
a(I0
I0
tp572
asI87
(lp573
I2
aI0
a(I2
I1
tp574
asI102
(lp575
I3
aI1
a(I0
I1
tp576
asI16
(lp577
I0
aI0
a(I0
I1
tp578
assI102
(dp579
I129
(lp580
I1
aI0
a(I3
I1
tp581
asI131
(lp582
I1
aI2
a(I0
I4
tp583
asI100
(lp584
I0
aI6
a(I0
I3
tp585
asI6
(lp586
I0
aI2
a(I0
I3
tp587
asI134
(lp588
I0
aI4
a(I2
I3
tp589
asI7
(lp590
I1
aI1
a(I1
I2
tp591
asI40
(lp592
I0
aI2
a(I1
I3
tp593
asI9
(lp594
I2
aI0
a(I2
I2
tp595
asI55
(lp596
I1
aI3
a(I1
I0
tp597
asI76
(lp598
I2
aI3
a(I1
I2
tp599
asI79
(lp600
I0
aI2
a(I0
I3
tp601
asI112
(lp602
(I0
I0
tp603
a(I0
I0
tp604
asI81
(lp605
I1
aI3
a(I2
I0
tp606
asI83
(lp607
I1
aI1
a(I1
I1
tp608
asI54
(lp609
I1
aI1
a(I2
I1
tp610
asI87
(lp611
I2
aI2
a(I0
I0
tp612
asI16
(lp613
I0
aI4
a(I2
I1
tp614
assI16
(dp615
I129
(lp616
I5
aI2
a(I0
I2
tp617
asI131
(lp618
I0
aI3
a(I0
I0
tp619
asI100
(lp620
I2
aI0
a(I1
I2
tp621
asI134
(lp622
I1
aI2
a(I2
I1
tp623
asI6
(lp624
I3
aI0
a(I1
I1
tp625
asI7
(lp626
I2
aI0
a(I2
I0
tp627
asI40
(lp628
I2
aI2
a(I1
I3
tp629
asI9
(lp630
I2
aI3
a(I3
I0
tp631
asI55
(lp632
I0
aI0
a(I1
I0
tp633
asI76
(lp634
I3
aI2
a(I1
I1
tp635
asI79
(lp636
I1
aI1
a(I2
I4
tp637
asI112
(lp638
I0
aI2
a(I1
I0
tp639
asI81
(lp640
(I4
I2
tp641
a(I3
I2
tp642
asI83
(lp643
I2
aI0
a(I2
I1
tp644
asI54
(lp645
I0
aI0
a(I1
I0
tp646
asI87
(lp647
I1
aI0
a(I0
I2
tp648
asI102
(lp649
I4
aI0
a(I1
I2
tp650
asssI2005
(dp651
I65
(dp652
I83
(lp653
I2
aI3
a(I4
I2
tp654
asI131
(lp655
I1
aI1
a(I3
I0
tp656
asI100
(lp657
I1
aI3
a(I0
I1
tp658
asI134
(lp659
I1
aI4
a(I0
I6
tp660
asI6
(lp661
I1
aI2
a(I0
I3
tp662
asI7
(lp663
I1
aI2
a(I0
I0
tp664
asI40
(lp665
I1
aI2
a(I2
I2
tp666
asI9
(lp667
I2
aI2
a(I1
I1
tp668
asI55
(lp669
I1
aI4
a(I0
I1
tp670
asI76
(lp671
I2
aI3
a(I2
I2
tp672
asI79
(lp673
I1
aI2
a(I3
I4
tp674
asI16
(lp675
I3
aI2
a(I0
I0
tp676
asI81
(lp677
(I1
I0
tp678
a(I2
I4
tp679
asI107
(lp680
I1
aI1
a(I3
I1
tp681
asI54
(lp682
I0
aI1
a(I4
I2
tp683
asI87
(lp684
I2
aI1
a(I0
I2
tp685
asI91
(lp686
I3
aI6
a(I1
I1
tp687
assI131
(dp688
I65
(lp689
I1
aI1
a(I0
I3
tp690
asI107
(lp691
I0
aI1
a(I1
I1
tp692
asI100
(lp693
I1
aI0
a(I0
I1
tp694
asI134
(lp695
I1
aI6
a(I1
I1
tp696
asI6
(lp697
I2
aI1
a(I0
I4
tp698
asI7
(lp699
(I2
I2
tp700
a(I2
I3
tp701
asI40
(lp702
I0
aI2
a(I0
I0
tp703
asI9
(lp704
I0
aI0
a(I2
I2
tp705
asI87
(lp706
I1
aI1
a(I2
I0
tp707
asI76
(lp708
I2
aI3
a(I2
I2
tp709
asI79
(lp710
I1
aI1
a(I0
I1
tp711
asI16
(lp712
I0
aI1
a(I1
I2
tp713
asI81
(lp714
I1
aI5
a(I0
I3
tp715
asI83
(lp716
I0
aI0
a(I1
I0
tp717
asI54
(lp718
I0
aI3
a(I1
I1
tp719
asI55
(lp720
I4
aI2
a(I2
I1
tp721
asI91
(lp722
I1
aI0
a(I1
I1
tp723
assI100
(dp724
I107
(lp725
I2
aI0
a(I2
I0
tp726
asI65
(lp727
I3
aI1
a(I1
I0
tp728
asI131
(lp729
I0
aI1
a(I1
I0
tp730
asI134
(lp731
I1
aI1
a(I1
I2
tp732
asI6
(lp733
I1
aI0
a(I0
I2
tp734
asI7
(lp735
I1
aI1
a(I2
I4
tp736
asI40
(lp737
I2
aI0
a(I2
I1
tp738
asI9
(lp739
I1
aI0
a(I2
I0
tp740
asI87
(lp741
I0
aI0
a(I2
I0
tp742
asI76
(lp743
I3
aI0
a(I3
I0
tp744
asI79
(lp745
(I3
I0
tp746
a(I1
I2
tp747
asI16
(lp748
I2
aI1
a(I0
I2
tp749
asI81
(lp750
I3
aI1
a(I1
I0
tp751
asI83
(lp752
I2
aI0
a(I2
I1
tp753
asI54
(lp754
I2
aI1
a(I2
I4
tp755
asI55
(lp756
I1
aI1
a(I1
I2
tp757
asI91
(lp758
I1
aI1
a(I2
I1
tp759
assI6
(dp760
I65
(lp761
I2
aI1
a(I3
I0
tp762
asI131
(lp763
I1
aI2
a(I4
I0
tp764
asI100
(lp765
I0
aI1
a(I2
I0
tp766
asI134
(lp767
I1
aI2
a(I1
I1
tp768
asI7
(lp769
I2
aI1
a(I2
I1
tp770
asI40
(lp771
I2
aI5
a(I0
I1
tp772
asI9
(lp773
I1
aI1
a(I4
I7
tp774
asI107
(lp775
I3
aI1
a(I3
I2
tp776
asI76
(lp777
I2
aI2
a(I5
I1
tp778
asI79
(lp779
I1
aI1
a(I2
I2
tp780
asI16
(lp781
I1
aI1
a(I2
I0
tp782
asI81
(lp783
I1
aI3
a(I1
I2
tp784
asI83
(lp785
I1
aI1
a(I0
I1
tp786
asI54
(lp787
I1
aI2
a(I5
I1
tp788
asI87
(lp789
I1
aI1
a(I2
I1
tp790
asI55
(lp791
I0
aI0
a(I2
I2
tp792
asI91
(lp793
(I4
I1
tp794
a(I2
I1
tp795
assI134
(dp796
I107
(lp797
I2
aI0
a(I5
I3
tp798
asI65
(lp799
I4
aI1
a(I6
I0
tp800
asI131
(lp801
I6
aI1
a(I1
I1
tp802
asI100
(lp803
I1
aI1
a(I2
I1
tp804
asI6
(lp805
I2
aI1
a(I1
I1
tp806
asI7
(lp807
I3
aI2
a(I1
I0
tp808
asI40
(lp809
I1
aI3
a(I3
I0
tp810
asI9
(lp811
I1
aI2
a(I0
I0
tp812
asI55
(lp813
I0
aI0
a(I5
I0
tp814
asI76
(lp815
I5
aI1
a(I0
I2
tp816
asI79
(lp817
I6
aI2
a(I1
I3
tp818
asI16
(lp819
I1
aI1
a(I0
I0
tp820
asI81
(lp821
I2
aI0
a(I4
I2
tp822
asI83
(lp823
(I5
I2
tp824
a(I1
I0
tp825
asI54
(lp826
I2
aI1
a(I0
I3
tp827
asI87
(lp828
I1
aI2
a(I2
I0
tp829
asI91
(lp830
I4
aI1
a(I1
I0
tp831
assI7
(dp832
I65
(lp833
I2
aI1
a(I0
I0
tp834
asI131
(lp835
(I2
I2
tp836
a(I3
I2
tp837
asI100
(lp838
I1
aI1
a(I4
I2
tp839
asI6
(lp840
I1
aI2
a(I1
I2
tp841
asI134
(lp842
I2
aI3
a(I0
I1
tp843
asI40
(lp844
I1
aI2
a(I3
I3
tp845
asI9
(lp846
I1
aI2
a(I0
I0
tp847
asI107
(lp848
I1
aI1
a(I2
I0
tp849
asI76
(lp850
I3
aI3
a(I2
I1
tp851
asI79
(lp852
I2
aI1
a(I2
I1
tp853
asI16
(lp854
I0
aI0
a(I0
I0
tp855
asI81
(lp856
I1
aI1
a(I1
I1
tp857
asI83
(lp858
I2
aI0
a(I0
I1
tp859
asI54
(lp860
I2
aI0
a(I0
I0
tp861
asI87
(lp862
I2
aI1
a(I1
I2
tp863
asI55
(lp864
I0
aI2
a(I2
I1
tp865
asI91
(lp866
I0
aI2
a(I1
I1
tp867
assI40
(dp868
I65
(lp869
I2
aI1
a(I2
I2
tp870
asI83
(lp871
I2
aI1
a(I2
I0
tp872
asI131
(lp873
I2
aI0
a(I0
I0
tp874
asI100
(lp875
I0
aI2
a(I1
I2
tp876
asI134
(lp877
I3
aI1
a(I0
I3
tp878
asI6
(lp879
I5
aI2
a(I1
I0
tp880
asI7
(lp881
I2
aI1
a(I3
I3
tp882
asI9
(lp883
I1
aI1
a(I3
I0
tp884
asI87
(lp885
(I3
I0
tp886
a(I3
I1
tp887
asI76
(lp888
I2
aI1
a(I1
I1
tp889
asI79
(lp890
I2
aI1
a(I2
I1
tp891
asI16
(lp892
I0
aI0
a(I3
I1
tp893
asI81
(lp894
I2
aI1
a(I2
I2
tp895
asI107
(lp896
I4
aI0
a(I3
I1
tp897
asI54
(lp898
I3
aI0
a(I0
I0
tp899
asI55
(lp900
I1
aI0
a(I1
I1
tp901
asI91
(lp902
I1
aI0
a(I5
I2
tp903
assI9
(dp904
I65
(lp905
I2
aI2
a(I1
I1
tp906
asI83
(lp907
I1
aI0
a(I3
I1
tp908
asI131
(lp909
I0
aI0
a(I2
I2
tp910
asI100
(lp911
I0
aI1
a(I0
I2
tp912
asI134
(lp913
I2
aI1
a(I0
I0
tp914
asI6
(lp915
I1
aI1
a(I7
I4
tp916
asI7
(lp917
I2
aI1
a(I0
I0
tp918
asI40
(lp919
I1
aI1
a(I0
I3
tp920
asI55
(lp921
I2
aI0
a(I2
I1
tp922
asI76
(lp923
(I2
I1
tp924
a(I2
I0
tp925
asI79
(lp926
I1
aI1
a(I2
I0
tp927
asI16
(lp928
I0
aI2
a(I3
I2
tp929
asI81
(lp930
I1
aI0
a(I0
I1
tp931
asI107
(lp932
I3
aI0
a(I1
I1
tp933
asI54
(lp934
I0
aI0
a(I2
I1
tp935
asI87
(lp936
I1
aI1
a(I0
I0
tp937
asI91
(lp938
I1
aI0
a(I2
I0
tp939
assI107
(dp940
I65
(lp941
I1
aI1
a(I1
I3
tp942
asI131
(lp943
I1
aI0
a(I1
I1
tp944
asI100
(lp945
I0
aI2
a(I0
I2
tp946
asI134
(lp947
I0
aI2
a(I3
I5
tp948
asI6
(lp949
I1
aI3
a(I2
I3
tp950
asI7
(lp951
I1
aI1
a(I0
I2
tp952
asI40
(lp953
I0
aI4
a(I1
I3
tp954
asI9
(lp955
I0
aI3
a(I1
I1
tp956
asI55
(lp957
I1
aI1
a(I0
I0
tp958
asI76
(lp959
I3
aI5
a(I2
I2
tp960
asI79
(lp961
I1
aI0
a(I0
I3
tp962
asI16
(lp963
(I1
I1
tp964
a(I1
I0
tp965
asI81
(lp966
I1
aI1
a(I0
I0
tp967
asI83
(lp968
I1
aI1
a(I2
I0
tp969
asI54
(lp970
I2
aI3
a(I2
I1
tp971
asI87
(lp972
I1
aI2
a(I1
I1
tp973
asI91
(lp974
I0
aI1
a(I2
I5
tp975
assI76
(dp976
I65
(lp977
I3
aI2
a(I2
I2
tp978
asI131
(lp979
I3
aI2
a(I2
I2
tp980
asI100
(lp981
I0
aI3
a(I0
I3
tp982
asI6
(lp983
I2
aI2
a(I1
I5
tp984
asI134
(lp985
I1
aI5
a(I2
I0
tp986
asI7
(lp987
I3
aI3
a(I1
I2
tp988
asI40
(lp989
I1
aI2
a(I1
I1
tp990
asI9
(lp991
(I1
I2
tp992
a(I0
I2
tp993
asI107
(lp994
I5
aI3
a(I2
I2
tp995
asI79
(lp996
I1
aI3
a(I2
I3
tp997
asI16
(lp998
I0
aI1
a(I1
I1
tp999
asI81
(lp1000
I0
aI2
a(I2
I0
tp1001
asI83
(lp1002
I0
aI0
a(I2
I0
tp1003
asI54
(lp1004
I0
aI3
a(I0
I2
tp1005
asI87
(lp1006
I1
aI4
a(I3
I0
tp1007
asI55
(lp1008
I1
aI5
a(I1
I0
tp1009
asI91
(lp1010
I1
aI2
a(I2
I2
tp1011
assI79
(dp1012
I65
(lp1013
I2
aI1
a(I4
I3
tp1014
asI131
(lp1015
I1
aI1
a(I1
I0
tp1016
asI100
(lp1017
(I0
I3
tp1018
a(I2
I1
tp1019
asI6
(lp1020
I1
aI1
a(I2
I2
tp1021
asI134
(lp1022
I2
aI6
a(I3
I1
tp1023
asI7
(lp1024
I1
aI2
a(I1
I2
tp1025
asI40
(lp1026
I1
aI2
a(I1
I2
tp1027
asI9
(lp1028
I1
aI1
a(I0
I2
tp1029
asI107
(lp1030
I0
aI1
a(I3
I0
tp1031
asI76
(lp1032
I3
aI1
a(I3
I2
tp1033
asI16
(lp1034
I0
aI1
a(I0
I1
tp1035
asI81
(lp1036
I1
aI4
a(I3
I0
tp1037
asI83
(lp1038
I2
aI3
a(I0
I0
tp1039
asI54
(lp1040
I1
aI1
a(I2
I1
tp1041
asI55
(lp1042
I1
aI1
a(I1
I1
tp1043
asI87
(lp1044
I1
aI0
a(I5
I2
tp1045
asI91
(lp1046
I0
aI1
a(I0
I1
tp1047
assI16
(dp1048
I65
(lp1049
I2
aI3
a(I0
I0
tp1050
asI131
(lp1051
I1
aI0
a(I2
I1
tp1052
asI100
(lp1053
I1
aI2
a(I2
I0
tp1054
asI6
(lp1055
I1
aI1
a(I0
I2
tp1056
asI134
(lp1057
I1
aI1
a(I0
I0
tp1058
asI7
(lp1059
I0
aI0
a(I0
I0
tp1060
asI40
(lp1061
I0
aI0
a(I1
I3
tp1062
asI9
(lp1063
I2
aI0
a(I2
I3
tp1064
asI107
(lp1065
(I1
I1
tp1066
a(I0
I1
tp1067
asI76
(lp1068
I1
aI0
a(I1
I1
tp1069
asI79
(lp1070
I1
aI0
a(I1
I0
tp1071
asI81
(lp1072
I2
aI1
a(I2
I1
tp1073
asI83
(lp1074
I1
aI1
a(I1
I2
tp1075
asI54
(lp1076
I3
aI3
a(I0
I2
tp1077
asI87
(lp1078
I1
aI1
a(I1
I1
tp1079
asI55
(lp1080
I2
aI2
a(I3
I3
tp1081
asI91
(lp1082
I1
aI1
a(I0
I2
tp1083
assI81
(dp1084
I107
(lp1085
I1
aI1
a(I0
I0
tp1086
asI65
(lp1087
(I0
I1
tp1088
a(I4
I2
tp1089
asI131
(lp1090
I5
aI1
a(I3
I0
tp1091
asI100
(lp1092
I1
aI3
a(I0
I1
tp1093
asI6
(lp1094
I3
aI1
a(I2
I1
tp1095
asI134
(lp1096
I0
aI2
a(I2
I4
tp1097
asI7
(lp1098
I1
aI1
a(I1
I1
tp1099
asI40
(lp1100
I1
aI2
a(I2
I2
tp1101
asI9
(lp1102
I0
aI1
a(I1
I0
tp1103
asI55
(lp1104
I2
aI2
a(I0
I0
tp1105
asI76
(lp1106
I2
aI0
a(I0
I2
tp1107
asI79
(lp1108
I4
aI1
a(I0
I3
tp1109
asI16
(lp1110
I1
aI2
a(I1
I2
tp1111
asI83
(lp1112
I0
aI2
a(I1
I1
tp1113
asI54
(lp1114
I1
aI3
a(I2
I2
tp1115
asI87
(lp1116
I0
aI1
a(I3
I0
tp1117
asI91
(lp1118
I2
aI2
a(I0
I0
tp1119
assI83
(dp1120
I65
(lp1121
I3
aI2
a(I2
I4
tp1122
asI131
(lp1123
I0
aI0
a(I0
I1
tp1124
asI100
(lp1125
I0
aI2
a(I1
I2
tp1126
asI6
(lp1127
I1
aI1
a(I1
I0
tp1128
asI134
(lp1129
(I2
I5
tp1130
a(I0
I1
tp1131
asI7
(lp1132
I0
aI2
a(I1
I0
tp1133
asI40
(lp1134
I1
aI2
a(I0
I2
tp1135
asI9
(lp1136
I0
aI1
a(I1
I3
tp1137
asI55
(lp1138
I4
aI1
a(I1
I0
tp1139
asI76
(lp1140
I0
aI0
a(I0
I2
tp1141
asI79
(lp1142
I3
aI2
a(I0
I0
tp1143
asI16
(lp1144
I1
aI1
a(I2
I1
tp1145
asI81
(lp1146
I2
aI0
a(I1
I1
tp1147
asI107
(lp1148
I1
aI1
a(I0
I2
tp1149
asI54
(lp1150
I3
aI0
a(I0
I1
tp1151
asI87
(lp1152
I0
aI2
a(I0
I2
tp1153
asI91
(lp1154
I0
aI3
a(I1
I0
tp1155
assI54
(dp1156
I65
(lp1157
I1
aI0
a(I2
I4
tp1158
asI131
(lp1159
I3
aI0
a(I1
I1
tp1160
asI100
(lp1161
I1
aI2
a(I4
I2
tp1162
asI6
(lp1163
I2
aI1
a(I1
I5
tp1164
asI134
(lp1165
I1
aI2
a(I3
I0
tp1166
asI7
(lp1167
I0
aI2
a(I0
I0
tp1168
asI40
(lp1169
I0
aI3
a(I0
I0
tp1170
asI9
(lp1171
I0
aI0
a(I1
I2
tp1172
asI107
(lp1173
I3
aI2
a(I1
I2
tp1174
asI76
(lp1175
I3
aI0
a(I2
I0
tp1176
asI79
(lp1177
I1
aI1
a(I1
I2
tp1178
asI16
(lp1179
I3
aI3
a(I2
I0
tp1180
asI81
(lp1181
I3
aI1
a(I2
I2
tp1182
asI83
(lp1183
I0
aI3
a(I1
I0
tp1184
asI55
(lp1185
(I2
I2
tp1186
a(I1
I1
tp1187
asI87
(lp1188
I2
aI2
a(I2
I2
tp1189
asI91
(lp1190
I2
aI0
a(I1
I1
tp1191
assI87
(dp1192
I65
(lp1193
I1
aI2
a(I2
I0
tp1194
asI131
(lp1195
I1
aI1
a(I0
I2
tp1196
asI100
(lp1197
I0
aI0
a(I0
I2
tp1198
asI6
(lp1199
I1
aI1
a(I1
I2
tp1200
asI134
(lp1201
I2
aI1
a(I0
I2
tp1202
asI7
(lp1203
I1
aI2
a(I2
I1
tp1204
asI40
(lp1205
(I0
I3
tp1206
a(I1
I3
tp1207
asI9
(lp1208
I1
aI1
a(I0
I0
tp1209
asI107
(lp1210
I2
aI1
a(I1
I1
tp1211
asI76
(lp1212
I4
aI1
a(I0
I3
tp1213
asI79
(lp1214
I0
aI1
a(I2
I5
tp1215
asI16
(lp1216
I1
aI1
a(I1
I1
tp1217
asI81
(lp1218
I1
aI0
a(I0
I3
tp1219
asI83
(lp1220
I2
aI0
a(I2
I0
tp1221
asI54
(lp1222
I2
aI2
a(I2
I2
tp1223
asI55
(lp1224
I1
aI1
a(I2
I2
tp1225
asI91
(lp1226
I4
aI3
a(I2
I0
tp1227
assI55
(dp1228
I65
(lp1229
I4
aI1
a(I1
I0
tp1230
asI131
(lp1231
I2
aI4
a(I1
I2
tp1232
asI100
(lp1233
I1
aI1
a(I2
I1
tp1234
asI6
(lp1235
I0
aI0
a(I2
I2
tp1236
asI134
(lp1237
I0
aI0
a(I0
I5
tp1238
asI7
(lp1239
I2
aI0
a(I1
I2
tp1240
asI40
(lp1241
I0
aI1
a(I1
I1
tp1242
asI9
(lp1243
I0
aI2
a(I1
I2
tp1244
asI107
(lp1245
I1
aI1
a(I0
I0
tp1246
asI76
(lp1247
I5
aI1
a(I0
I1
tp1248
asI79
(lp1249
I1
aI1
a(I1
I1
tp1250
asI16
(lp1251
I2
aI2
a(I3
I3
tp1252
asI81
(lp1253
I2
aI2
a(I0
I0
tp1254
asI83
(lp1255
I1
aI4
a(I0
I1
tp1256
asI54
(lp1257
(I2
I2
tp1258
a(I1
I1
tp1259
asI87
(lp1260
I1
aI1
a(I2
I2
tp1261
asI91
(lp1262
I2
aI0
a(I1
I0
tp1263
assI91
(dp1264
I65
(lp1265
I6
aI3
a(I1
I1
tp1266
asI131
(lp1267
I0
aI1
a(I1
I1
tp1268
asI100
(lp1269
I1
aI1
a(I1
I2
tp1270
asI134
(lp1271
I1
aI4
a(I0
I1
tp1272
asI6
(lp1273
(I1
I4
tp1274
a(I1
I2
tp1275
asI7
(lp1276
I2
aI0
a(I1
I1
tp1277
asI40
(lp1278
I0
aI1
a(I2
I5
tp1279
asI9
(lp1280
I0
aI1
a(I0
I2
tp1281
asI107
(lp1282
I1
aI0
a(I5
I2
tp1283
asI76
(lp1284
I2
aI1
a(I2
I2
tp1285
asI79
(lp1286
I1
aI0
a(I1
I0
tp1287
asI16
(lp1288
I1
aI1
a(I2
I0
tp1289
asI81
(lp1290
I2
aI2
a(I0
I0
tp1291
asI83
(lp1292
I3
aI0
a(I0
I1
tp1293
asI54
(lp1294
I0
aI2
a(I1
I1
tp1295
asI55
(lp1296
I0
aI2
a(I0
I1
tp1297
asI87
(lp1298
I3
aI4
a(I0
I2
tp1299
asssI2006
(dp1300
I129
(dp1301
I131
(lp1302
I0
aI1
a(I1
I3
tp1303
asI100
(lp1304
I2
aI1
a(I3
I0
tp1305
asI6
(lp1306
I1
aI3
a(I4
I1
tp1307
asI134
(lp1308
I0
aI6
a(I0
I3
tp1309
asI7
(lp1310
I1
aI1
a(I2
I0
tp1311
asI40
(lp1312
I1
aI2
a(I0
I0
tp1313
asI9
(lp1314
I1
aI2
a(I2
I1
tp1315
asI55
(lp1316
I2
aI0
a(I2
I0
tp1317
asI79
(lp1318
I1
aI1
a(I0
I2
tp1319
asI16
(lp1320
I0
aI1
a(I2
I3
tp1321
asI81
(lp1322
(I1
I2
tp1323
a(I0
I1
tp1324
asI83
(lp1325
I2
aI1
a(I3
I1
tp1326
asI54
(lp1327
I3
aI3
a(I1
I3
tp1328
asI23
(lp1329
I1
aI2
a(I2
I2
tp1330
asI87
(lp1331
I2
aI0
a(I2
I0
tp1332
asI91
(lp1333
I4
aI3
a(I3
I0
tp1334
asI93
(lp1335
I0
aI1
a(I0
I0
tp1336
assI131
(dp1337
I129
(lp1338
I1
aI0
a(I3
I1
tp1339
asI100
(lp1340
I1
aI0
a(I0
I1
tp1341
asI134
(lp1342
I1
aI2
a(I0
I2
tp1343
asI6
(lp1344
I1
aI1
a(I3
I2
tp1345
asI7
(lp1346
I0
aI1
a(I0
I2
tp1347
asI40
(lp1348
I1
aI0
a(I1
I2
tp1349
asI9
(lp1350
I0
aI2
a(I2
I2
tp1351
asI87
(lp1352
I1
aI3
a(I1
I0
tp1353
asI79
(lp1354
I1
aI1
a(I1
I1
tp1355
asI16
(lp1356
I1
aI1
a(I0
I0
tp1357
asI81
(lp1358
I2
aI1
a(I3
I2
tp1359
asI83
(lp1360
I0
aI0
a(I2
I3
tp1361
asI54
(lp1362
(I0
I0
tp1363
a(I1
I2
tp1364
asI55
(lp1365
I1
aI2
a(I2
I2
tp1366
asI23
(lp1367
I1
aI2
a(I2
I2
tp1368
asI91
(lp1369
I0
aI0
a(I2
I2
tp1370
asI93
(lp1371
I0
aI0
a(I2
I3
tp1372
assI100
(dp1373
I129
(lp1374
I1
aI2
a(I0
I3
tp1375
asI131
(lp1376
I0
aI1
a(I1
I0
tp1377
asI6
(lp1378
I2
aI1
a(I0
I0
tp1379
asI134
(lp1380
I1
aI1
a(I2
I0
tp1381
asI7
(lp1382
I0
aI1
a(I3
I0
tp1383
asI40
(lp1384
I1
aI2
a(I2
I1
tp1385
asI9
(lp1386
I1
aI2
a(I2
I0
tp1387
asI87
(lp1388
I1
aI1
a(I1
I0
tp1389
asI79
(lp1390
I0
aI0
a(I2
I0
tp1391
asI16
(lp1392
I0
aI2
a(I2
I4
tp1393
asI81
(lp1394
I0
aI0
a(I2
I2
tp1395
asI83
(lp1396
(I1
I1
tp1397
a(I1
I1
tp1398
asI54
(lp1399
I1
aI1
a(I1
I2
tp1400
asI55
(lp1401
I0
aI0
a(I0
I0
tp1402
asI23
(lp1403
I3
aI3
a(I4
I0
tp1404
asI91
(lp1405
I2
aI2
a(I3
I1
tp1406
asI93
(lp1407
I2
aI2
a(I1
I1
tp1408
assI134
(dp1409
I129
(lp1410
I6
aI0
a(I3
I0
tp1411
asI131
(lp1412
I2
aI1
a(I2
I0
tp1413
asI100
(lp1414
I1
aI1
a(I0
I2
tp1415
asI6
(lp1416
I2
aI1
a(I2
I0
tp1417
asI7
(lp1418
I1
aI3
a(I2
I0
tp1419
asI40
(lp1420
I3
aI1
a(I1
I1
tp1421
asI9
(lp1422
I0
aI2
a(I0
I2
tp1423
asI55
(lp1424
(I4
I2
tp1425
a(I3
I0
tp1426
asI79
(lp1427
I2
aI1
a(I1
I0
tp1428
asI16
(lp1429
I2
aI3
a(I1
I4
tp1430
asI81
(lp1431
I6
aI1
a(I2
I0
tp1432
asI83
(lp1433
I3
aI0
a(I2
I3
tp1434
asI54
(lp1435
I3
aI1
a(I4
I1
tp1436
asI87
(lp1437
I3
aI0
a(I2
I2
tp1438
asI23
(lp1439
I2
aI2
a(I3
I1
tp1440
asI91
(lp1441
I6
aI2
a(I1
I2
tp1442
asI93
(lp1443
I1
aI1
a(I0
I0
tp1444
assI6
(dp1445
I129
(lp1446
I3
aI1
a(I1
I4
tp1447
asI131
(lp1448
I1
aI1
a(I2
I3
tp1449
asI100
(lp1450
I1
aI2
a(I0
I0
tp1451
asI134
(lp1452
I1
aI2
a(I0
I2
tp1453
asI7
(lp1454
I2
aI1
a(I2
I1
tp1455
asI40
(lp1456
I2
aI3
a(I1
I2
tp1457
asI9
(lp1458
I3
aI1
a(I1
I0
tp1459
asI23
(lp1460
(I3
I0
tp1461
a(I3
I2
tp1462
asI79
(lp1463
I2
aI3
a(I2
I0
tp1464
asI16
(lp1465
I0
aI3
a(I3
I1
tp1466
asI81
(lp1467
I1
aI1
a(I3
I1
tp1468
asI83
(lp1469
I0
aI0
a(I1
I2
tp1470
asI54
(lp1471
I2
aI1
a(I3
I2
tp1472
asI55
(lp1473
I1
aI1
a(I0
I1
tp1474
asI87
(lp1475
I2
aI0
a(I1
I0
tp1476
asI91
(lp1477
I1
aI3
a(I2
I2
tp1478
asI93
(lp1479
I3
aI1
a(I1
I2
tp1480
assI7
(dp1481
I129
(lp1482
I1
aI1
a(I0
I2
tp1483
asI131
(lp1484
I1
aI0
a(I2
I0
tp1485
asI100
(lp1486
I1
aI0
a(I0
I3
tp1487
asI6
(lp1488
I1
aI2
a(I1
I2
tp1489
asI134
(lp1490
I3
aI1
a(I0
I2
tp1491
asI40
(lp1492
(I0
I2
tp1493
a(I3
I2
tp1494
asI9
(lp1495
I1
aI3
a(I2
I0
tp1496
asI87
(lp1497
I0
aI1
a(I1
I0
tp1498
asI79
(lp1499
I1
aI1
a(I0
I0
tp1500
asI16
(lp1501
I3
aI1
a(I0
I1
tp1502
asI81
(lp1503
I1
aI1
a(I0
I1
tp1504
asI83
(lp1505
I1
aI1
a(I0
I1
tp1506
asI54
(lp1507
I1
aI2
a(I1
I0
tp1508
asI55
(lp1509
I2
aI2
a(I2
I4
tp1510
asI23
(lp1511
I0
aI0
a(I4
I1
tp1512
asI91
(lp1513
I1
aI1
a(I2
I0
tp1514
asI93
(lp1515
I3
aI2
a(I2
I3
tp1516
assI40
(dp1517
I129
(lp1518
I2
aI1
a(I0
I0
tp1519
asI131
(lp1520
I0
aI1
a(I2
I1
tp1521
asI100
(lp1522
I2
aI1
a(I1
I2
tp1523
asI6
(lp1524
I3
aI2
a(I2
I1
tp1525
asI134
(lp1526
I1
aI3
a(I1
I1
tp1527
asI7
(lp1528
(I2
I0
tp1529
a(I2
I3
tp1530
asI9
(lp1531
I2
aI2
a(I2
I0
tp1532
asI55
(lp1533
I0
aI1
a(I2
I1
tp1534
asI79
(lp1535
I0
aI0
a(I0
I3
tp1536
asI16
(lp1537
I2
aI1
a(I0
I2
tp1538
asI81
(lp1539
I4
aI0
a(I5
I2
tp1540
asI83
(lp1541
I1
aI2
a(I1
I0
tp1542
asI54
(lp1543
I4
aI2
a(I3
I2
tp1544
asI23
(lp1545
I2
aI1
a(I0
I1
tp1546
asI87
(lp1547
I1
aI1
a(I1
I1
tp1548
asI91
(lp1549
I2
aI0
a(I0
I1
tp1550
asI93
(lp1551
I2
aI1
a(I3
I0
tp1552
assI9
(dp1553
I129
(lp1554
I2
aI1
a(I1
I2
tp1555
asI131
(lp1556
I2
aI0
a(I2
I2
tp1557
asI100
(lp1558
I2
aI1
a(I0
I2
tp1559
asI134
(lp1560
I2
aI0
a(I2
I0
tp1561
asI6
(lp1562
I1
aI3
a(I0
I1
tp1563
asI7
(lp1564
I3
aI1
a(I0
I2
tp1565
asI40
(lp1566
I2
aI2
a(I0
I2
tp1567
asI55
(lp1568
I2
aI1
a(I1
I1
tp1569
asI79
(lp1570
I0
aI0
a(I1
I0
tp1571
asI16
(lp1572
I0
aI3
a(I1
I0
tp1573
asI81
(lp1574
I4
aI0
a(I3
I0
tp1575
asI83
(lp1576
I1
aI0
a(I2
I1
tp1577
asI54
(lp1578
I0
aI2
a(I2
I0
tp1579
asI23
(lp1580
I1
aI0
a(I2
I1
tp1581
asI87
(lp1582
I2
aI0
a(I2
I0
tp1583
asI91
(lp1584
(I1
I1
tp1585
a(I3
I1
tp1586
asI93
(lp1587
I4
aI2
a(I2
I0
tp1588
assI87
(dp1589
I129
(lp1590
I0
aI2
a(I0
I2
tp1591
asI131
(lp1592
I3
aI1
a(I0
I1
tp1593
asI100
(lp1594
I1
aI1
a(I0
I1
tp1595
asI6
(lp1596
I0
aI2
a(I0
I1
tp1597
asI134
(lp1598
I0
aI3
a(I2
I2
tp1599
asI7
(lp1600
I1
aI0
a(I0
I1
tp1601
asI40
(lp1602
I1
aI1
a(I1
I1
tp1603
asI9
(lp1604
I0
aI2
a(I0
I2
tp1605
asI55
(lp1606
I0
aI1
a(I0
I1
tp1607
asI79
(lp1608
I0
aI1
a(I0
I0
tp1609
asI16
(lp1610
I0
aI1
a(I0
I1
tp1611
asI81
(lp1612
I1
aI1
a(I0
I3
tp1613
asI83
(lp1614
I1
aI0
a(I2
I0
tp1615
asI54
(lp1616
I1
aI2
a(I3
I1
tp1617
asI23
(lp1618
I2
aI4
a(I0
I0
tp1619
asI91
(lp1620
I0
aI1
a(I1
I1
tp1621
asI93
(lp1622
(I2
I0
tp1623
a(I1
I3
tp1624
assI79
(dp1625
I129
(lp1626
I1
aI1
a(I2
I0
tp1627
asI131
(lp1628
I1
aI1
a(I1
I1
tp1629
asI100
(lp1630
I0
aI0
a(I0
I2
tp1631
asI6
(lp1632
I3
aI2
a(I0
I2
tp1633
asI134
(lp1634
I1
aI2
a(I0
I1
tp1635
asI7
(lp1636
I1
aI1
a(I0
I0
tp1637
asI40
(lp1638
I0
aI0
a(I3
I0
tp1639
asI9
(lp1640
I0
aI0
a(I0
I1
tp1641
asI23
(lp1642
I1
aI1
a(I1
I0
tp1643
asI16
(lp1644
(I3
I0
tp1645
a(I4
I1
tp1646
asI81
(lp1647
I1
aI1
a(I1
I2
tp1648
asI83
(lp1649
I1
aI1
a(I2
I3
tp1650
asI54
(lp1651
I1
aI2
a(I2
I1
tp1652
asI87
(lp1653
I1
aI0
a(I0
I0
tp1654
asI55
(lp1655
I3
aI1
a(I3
I0
tp1656
asI91
(lp1657
I2
aI2
a(I2
I2
tp1658
asI93
(lp1659
I1
aI1
a(I1
I0
tp1660
assI16
(dp1661
I129
(lp1662
I1
aI0
a(I3
I2
tp1663
asI131
(lp1664
I1
aI1
a(I0
I0
tp1665
asI100
(lp1666
I2
aI0
a(I4
I2
tp1667
asI6
(lp1668
I3
aI0
a(I1
I3
tp1669
asI134
(lp1670
I3
aI2
a(I4
I1
tp1671
asI7
(lp1672
I1
aI3
a(I1
I0
tp1673
asI40
(lp1674
I1
aI2
a(I2
I0
tp1675
asI9
(lp1676
I3
aI0
a(I0
I1
tp1677
asI55
(lp1678
I2
aI1
a(I2
I1
tp1679
asI79
(lp1680
(I0
I3
tp1681
a(I1
I4
tp1682
asI81
(lp1683
I0
aI0
a(I2
I0
tp1684
asI83
(lp1685
I3
aI2
a(I3
I2
tp1686
asI54
(lp1687
I2
aI2
a(I0
I0
tp1688
asI23
(lp1689
I4
aI2
a(I3
I1
tp1690
asI87
(lp1691
I1
aI0
a(I1
I0
tp1692
asI91
(lp1693
I1
aI1
a(I4
I0
tp1694
asI93
(lp1695
I0
aI0
a(I2
I1
tp1696
assI81
(dp1697
I129
(lp1698
(I2
I1
tp1699
a(I1
I0
tp1700
asI131
(lp1701
I1
aI2
a(I2
I3
tp1702
asI100
(lp1703
I0
aI0
a(I2
I2
tp1704
asI6
(lp1705
I1
aI1
a(I1
I3
tp1706
asI134
(lp1707
I1
aI6
a(I0
I2
tp1708
asI7
(lp1709
I1
aI1
a(I1
I0
tp1710
asI40
(lp1711
I0
aI4
a(I2
I5
tp1712
asI9
(lp1713
I0
aI4
a(I0
I3
tp1714
asI55
(lp1715
I0
aI1
a(I1
I2
tp1716
asI79
(lp1717
I1
aI1
a(I2
I1
tp1718
asI16
(lp1719
I0
aI0
a(I0
I2
tp1720
asI83
(lp1721
I0
aI1
a(I1
I0
tp1722
asI54
(lp1723
I1
aI1
a(I2
I1
tp1724
asI23
(lp1725
I1
aI3
a(I1
I2
tp1726
asI87
(lp1727
I1
aI1
a(I3
I0
tp1728
asI91
(lp1729
I1
aI1
a(I0
I0
tp1730
asI93
(lp1731
I0
aI2
a(I4
I1
tp1732
assI83
(dp1733
I129
(lp1734
I1
aI2
a(I1
I3
tp1735
asI131
(lp1736
I0
aI0
a(I3
I2
tp1737
asI100
(lp1738
(I1
I1
tp1739
a(I1
I1
tp1740
asI6
(lp1741
I0
aI0
a(I2
I1
tp1742
asI134
(lp1743
I0
aI3
a(I3
I2
tp1744
asI7
(lp1745
I1
aI1
a(I1
I0
tp1746
asI40
(lp1747
I2
aI1
a(I0
I1
tp1748
asI9
(lp1749
I0
aI1
a(I1
I2
tp1750
asI23
(lp1751
I5
aI1
a(I0
I2
tp1752
asI79
(lp1753
I1
aI1
a(I3
I2
tp1754
asI16
(lp1755
I2
aI3
a(I2
I3
tp1756
asI81
(lp1757
I1
aI0
a(I0
I1
tp1758
asI54
(lp1759
I2
aI2
a(I1
I1
tp1760
asI87
(lp1761
I0
aI1
a(I0
I2
tp1762
asI55
(lp1763
I1
aI1
a(I3
I1
tp1764
asI91
(lp1765
I3
aI0
a(I2
I4
tp1766
asI93
(lp1767
I3
aI1
a(I1
I2
tp1768
assI54
(dp1769
I129
(lp1770
I3
aI3
a(I3
I1
tp1771
asI131
(lp1772
(I0
I0
tp1773
a(I2
I1
tp1774
asI100
(lp1775
I1
aI1
a(I2
I1
tp1776
asI6
(lp1777
I1
aI2
a(I2
I3
tp1778
asI134
(lp1779
I1
aI3
a(I1
I4
tp1780
asI7
(lp1781
I2
aI1
a(I0
I1
tp1782
asI40
(lp1783
I2
aI4
a(I2
I3
tp1784
asI9
(lp1785
I2
aI0
a(I0
I2
tp1786
asI87
(lp1787
I2
aI1
a(I1
I3
tp1788
asI79
(lp1789
I2
aI1
a(I1
I2
tp1790
asI16
(lp1791
I2
aI2
a(I0
I0
tp1792
asI81
(lp1793
I1
aI1
a(I1
I2
tp1794
asI83
(lp1795
I2
aI2
a(I1
I1
tp1796
asI55
(lp1797
I4
aI0
a(I0
I5
tp1798
asI23
(lp1799
I2
aI1
a(I4
I0
tp1800
asI91
(lp1801
I1
aI0
a(I2
I1
tp1802
asI93
(lp1803
I0
aI2
a(I0
I1
tp1804
assI23
(dp1805
I129
(lp1806
I2
aI1
a(I2
I2
tp1807
asI131
(lp1808
I2
aI1
a(I2
I2
tp1809
asI100
(lp1810
I3
aI3
a(I0
I4
tp1811
asI134
(lp1812
I2
aI2
a(I1
I3
tp1813
asI6
(lp1814
(I0
I3
tp1815
a(I2
I3
tp1816
asI7
(lp1817
I0
aI0
a(I1
I4
tp1818
asI40
(lp1819
I1
aI2
a(I1
I0
tp1820
asI9
(lp1821
I0
aI1
a(I1
I2
tp1822
asI55
(lp1823
I3
aI0
a(I1
I4
tp1824
asI79
(lp1825
I1
aI1
a(I0
I1
tp1826
asI16
(lp1827
I2
aI4
a(I1
I3
tp1828
asI81
(lp1829
I3
aI1
a(I2
I1
tp1830
asI83
(lp1831
I1
aI5
a(I2
I0
tp1832
asI54
(lp1833
I1
aI2
a(I0
I4
tp1834
asI87
(lp1835
I4
aI2
a(I0
I0
tp1836
asI91
(lp1837
I2
aI3
a(I0
I4
tp1838
asI93
(lp1839
I1
aI2
a(I2
I0
tp1840
assI55
(dp1841
I129
(lp1842
I0
aI2
a(I0
I2
tp1843
asI131
(lp1844
I2
aI1
a(I2
I2
tp1845
asI100
(lp1846
I0
aI0
a(I0
I0
tp1847
asI134
(lp1848
(I2
I4
tp1849
a(I0
I3
tp1850
asI6
(lp1851
I1
aI1
a(I1
I0
tp1852
asI7
(lp1853
I2
aI2
a(I4
I2
tp1854
asI40
(lp1855
I1
aI0
a(I1
I2
tp1856
asI9
(lp1857
I1
aI2
a(I1
I1
tp1858
asI87
(lp1859
I1
aI0
a(I1
I0
tp1860
asI79
(lp1861
I1
aI3
a(I0
I3
tp1862
asI16
(lp1863
I1
aI2
a(I1
I2
tp1864
asI81
(lp1865
I1
aI0
a(I2
I1
tp1866
asI83
(lp1867
I1
aI1
a(I1
I3
tp1868
asI54
(lp1869
I0
aI4
a(I5
I0
tp1870
asI23
(lp1871
I0
aI3
a(I4
I1
tp1872
asI91
(lp1873
I1
aI1
a(I0
I2
tp1874
asI93
(lp1875
I1
aI0
a(I2
I0
tp1876
assI91
(dp1877
I129
(lp1878
I3
aI4
a(I0
I3
tp1879
asI131
(lp1880
I0
aI0
a(I2
I2
tp1881
asI100
(lp1882
I2
aI2
a(I1
I3
tp1883
asI134
(lp1884
I2
aI6
a(I2
I1
tp1885
asI6
(lp1886
I3
aI1
a(I2
I2
tp1887
asI7
(lp1888
I1
aI1
a(I0
I2
tp1889
asI40
(lp1890
I0
aI2
a(I1
I0
tp1891
asI9
(lp1892
(I1
I1
tp1893
a(I1
I3
tp1894
asI87
(lp1895
I1
aI0
a(I1
I1
tp1896
asI79
(lp1897
I2
aI2
a(I2
I2
tp1898
asI16
(lp1899
I1
aI1
a(I0
I4
tp1900
asI81
(lp1901
I1
aI1
a(I0
I0
tp1902
asI83
(lp1903
I0
aI3
a(I4
I2
tp1904
asI54
(lp1905
I0
aI1
a(I1
I2
tp1906
asI55
(lp1907
I1
aI1
a(I2
I0
tp1908
asI23
(lp1909
I3
aI2
a(I4
I0
tp1910
asI93
(lp1911
I1
aI0
a(I1
I3
tp1912
assI93
(dp1913
I129
(lp1914
I1
aI0
a(I0
I0
tp1915
asI131
(lp1916
I0
aI0
a(I3
I2
tp1917
asI100
(lp1918
I2
aI2
a(I1
I1
tp1919
asI6
(lp1920
I1
aI3
a(I2
I1
tp1921
asI134
(lp1922
I1
aI1
a(I0
I0
tp1923
asI7
(lp1924
I2
aI3
a(I3
I2
tp1925
asI40
(lp1926
I1
aI2
a(I0
I3
tp1927
asI9
(lp1928
I2
aI4
a(I0
I2
tp1929
asI23
(lp1930
I2
aI1
a(I0
I2
tp1931
asI79
(lp1932
I1
aI1
a(I0
I1
tp1933
asI16
(lp1934
I0
aI0
a(I1
I2
tp1935
asI81
(lp1936
I2
aI0
a(I1
I4
tp1937
asI83
(lp1938
I1
aI3
a(I2
I1
tp1939
asI54
(lp1940
I2
aI0
a(I1
I0
tp1941
asI87
(lp1942
(I0
I2
tp1943
a(I3
I1
tp1944
asI55
(lp1945
I0
aI1
a(I0
I2
tp1946
asI91
(lp1947
I0
aI1
a(I3
I1
tp1948
asssI2007
(dp1949
I129
(dp1950
I131
(lp1951
I5
aI3
a(I1
I0
tp1952
asI100
(lp1953
I2
aI1
a(I0
I3
tp1954
asI134
(lp1955
(I2
I2
tp1956
a(I2
I1
tp1957
asI6
(lp1958
I0
aI2
a(I2
I0
tp1959
asI7
(lp1960
I1
aI2
a(I3
I3
tp1961
asI40
(lp1962
I1
aI2
a(I1
I3
tp1963
asI9
(lp1964
I0
aI1
a(I0
I3
tp1965
asI107
(lp1966
I2
aI0
a(I1
I1
tp1967
asI79
(lp1968
I3
aI3
a(I1
I1
tp1969
asI16
(lp1970
I0
aI1
a(I1
I1
tp1971
asI102
(lp1972
I0
aI2
a(I1
I2
tp1973
asI83
(lp1974
I3
aI0
a(I0
I2
tp1975
asI105
(lp1976
I2
aI2
a(I3
I1
tp1977
asI54
(lp1978
I0
aI2
a(I1
I1
tp1979
asI55
(lp1980
I2
aI3
a(I2
I1
tp1981
asI91
(lp1982
I0
aI0
a(I1
I1
tp1983
asI93
(lp1984
I2
aI1
a(I3
I3
tp1985
assI131
(dp1986
I129
(lp1987
I3
aI5
a(I0
I1
tp1988
asI100
(lp1989
I2
aI2
a(I1
I1
tp1990
asI102
(lp1991
I1
aI0
a(I1
I0
tp1992
asI134
(lp1993
I1
aI1
a(I1
I0
tp1994
asI7
(lp1995
I4
aI0
a(I4
I2
tp1996
asI40
(lp1997
I1
aI2
a(I0
I0
tp1998
asI9
(lp1999
I1
aI1
a(I2
I1
tp2000
asI107
(lp2001
I3
aI1
a(I2
I1
tp2002
asI79
(lp2003
I3
aI1
a(I0
I1
tp2004
asI16
(lp2005
I1
aI3
a(I4
I0
tp2006
asI83
(lp2007
(I1
I3
tp2008
a(I1
I0
tp2009
asI54
(lp2010
I1
aI2
a(I0
I0
tp2011
asI105
(lp2012
I1
aI2
a(I1
I3
tp2013
asI55
(lp2014
I2
aI2
a(I3
I2
tp2015
asI6
(lp2016
I1
aI2
a(I2
I2
tp2017
asI91
(lp2018
I2
aI2
a(I3
I2
tp2019
asI93
(lp2020
I2
aI1
a(I3
I0
tp2021
assI100
(dp2022
I129
(lp2023
I1
aI2
a(I3
I0
tp2024
asI131
(lp2025
I2
aI2
a(I1
I1
tp2026
asI102
(lp2027
I2
aI0
a(I3
I1
tp2028
asI6
(lp2029
I1
aI0
a(I1
I1
tp2030
asI7
(lp2031
I3
aI0
a(I1
I0
tp2032
asI40
(lp2033
I1
aI1
a(I1
I1
tp2034
asI9
(lp2035
I1
aI1
a(I0
I1
tp2036
asI107
(lp2037
I1
aI0
a(I0
I1
tp2038
asI79
(lp2039
I1
aI0
a(I0
I0
tp2040
asI16
(lp2041
I4
aI1
a(I0
I1
tp2042
asI83
(lp2043
I1
aI0
a(I1
I1
tp2044
asI105
(lp2045
I1
aI1
a(I7
I0
tp2046
asI54
(lp2047
I2
aI1
a(I0
I0
tp2048
asI55
(lp2049
(I1
I0
tp2050
a(I1
I1
tp2051
asI91
(lp2052
I1
aI2
a(I4
I1
tp2053
asI93
(lp2054
I0
aI0
a(I0
I2
tp2055
asI134
(lp2056
I1
aI2
a(I0
I1
tp2057
assI102
(dp2058
I129
(lp2059
I2
aI0
a(I2
I1
tp2060
asI131
(lp2061
I0
aI1
a(I0
I1
tp2062
asI100
(lp2063
I0
aI2
a(I1
I3
tp2064
asI6
(lp2065
I0
aI3
a(I1
I2
tp2066
asI134
(lp2067
I0
aI1
a(I1
I2
tp2068
asI7
(lp2069
I0
aI1
a(I0
I1
tp2070
asI40
(lp2071
(I0
I3
tp2072
a(I1
I2
tp2073
asI9
(lp2074
I1
aI1
a(I0
I1
tp2075
asI107
(lp2076
I2
aI0
a(I1
I1
tp2077
asI79
(lp2078
I1
aI2
a(I1
I1
tp2079
asI16
(lp2080
I2
aI1
a(I1
I4
tp2081
asI83
(lp2082
I2
aI4
a(I1
I1
tp2083
asI54
(lp2084
I3
aI1
a(I0
I0
tp2085
asI105
(lp2086
I0
aI0
a(I2
I1
tp2087
asI55
(lp2088
I0
aI3
a(I0
I3
tp2089
asI91
(lp2090
I0
aI1
a(I1
I0
tp2091
asI93
(lp2092
I3
aI2
a(I1
I2
tp2093
assI6
(dp2094
I129
(lp2095
I2
aI0
a(I0
I2
tp2096
asI131
(lp2097
I2
aI1
a(I2
I2
tp2098
asI100
(lp2099
I0
aI1
a(I1
I1
tp2100
asI134
(lp2101
I2
aI5
a(I0
I1
tp2102
asI102
(lp2103
I3
aI0
a(I2
I1
tp2104
asI7
(lp2105
I2
aI2
a(I1
I2
tp2106
asI40
(lp2107
I0
aI1
a(I1
I2
tp2108
asI105
(lp2109
I3
aI0
a(I2
I2
tp2110
asI107
(lp2111
I4
aI1
a(I2
I3
tp2112
asI79
(lp2113
I2
aI1
a(I4
I1
tp2114
asI16
(lp2115
I0
aI1
a(I3
I0
tp2116
asI83
(lp2117
I4
aI0
a(I0
I1
tp2118
asI9
(lp2119
I1
aI1
a(I1
I0
tp2120
asI54
(lp2121
I3
aI0
a(I1
I2
tp2122
asI55
(lp2123
I3
aI0
a(I2
I0
tp2124
asI91
(lp2125
I1
aI2
a(I0
I2
tp2126
asI93
(lp2127
(I0
I0
tp2128
a(I3
I2
tp2129
assI7
(dp2130
I129
(lp2131
I2
aI1
a(I3
I3
tp2132
asI131
(lp2133
I0
aI4
a(I2
I4
tp2134
asI100
(lp2135
I0
aI3
a(I0
I1
tp2136
asI134
(lp2137
I3
aI0
a(I0
I2
tp2138
asI102
(lp2139
I1
aI0
a(I1
I0
tp2140
asI40
(lp2141
I0
aI0
a(I0
I5
tp2142
asI9
(lp2143
I1
aI4
a(I2
I3
tp2144
asI107
(lp2145
(I1
I3
tp2146
a(I3
I3
tp2147
asI79
(lp2148
I0
aI2
a(I0
I0
tp2149
asI16
(lp2150
I2
aI1
a(I3
I2
tp2151
asI83
(lp2152
I6
aI1
a(I2
I2
tp2153
asI54
(lp2154
I2
aI3
a(I1
I1
tp2155
asI105
(lp2156
I1
aI3
a(I1
I1
tp2157
asI55
(lp2158
I1
aI2
a(I1
I3
tp2159
asI6
(lp2160
I2
aI2
a(I2
I1
tp2161
asI91
(lp2162
I1
aI1
a(I1
I1
tp2163
asI93
(lp2164
I3
aI0
a(I2
I0
tp2165
assI40
(dp2166
I107
(lp2167
I0
aI0
a(I3
I2
tp2168
asI129
(lp2169
I2
aI1
a(I3
I1
tp2170
asI131
(lp2171
I2
aI1
a(I0
I0
tp2172
asI100
(lp2173
I1
aI1
a(I1
I1
tp2174
asI102
(lp2175
(I3
I0
tp2176
a(I2
I1
tp2177
asI134
(lp2178
I4
aI0
a(I1
I1
tp2179
asI7
(lp2180
I0
aI0
a(I5
I0
tp2181
asI9
(lp2182
I1
aI1
a(I1
I0
tp2183
asI55
(lp2184
I3
aI0
a(I3
I0
tp2185
asI79
(lp2186
I3
aI0
a(I1
I1
tp2187
asI16
(lp2188
I1
aI3
a(I4
I1
tp2189
asI83
(lp2190
I1
aI0
a(I2
I0
tp2191
asI54
(lp2192
I0
aI0
a(I4
I1
tp2193
asI105
(lp2194
I4
aI1
a(I2
I0
tp2195
asI6
(lp2196
I1
aI0
a(I2
I1
tp2197
asI91
(lp2198
I0
aI0
a(I3
I1
tp2199
asI93
(lp2200
I5
aI0
a(I0
I2
tp2201
assI9
(dp2202
I129
(lp2203
I1
aI0
a(I3
I0
tp2204
asI131
(lp2205
I1
aI1
a(I1
I2
tp2206
asI100
(lp2207
I1
aI1
a(I1
I0
tp2208
asI102
(lp2209
I1
aI1
a(I1
I0
tp2210
asI6
(lp2211
I1
aI1
a(I0
I1
tp2212
asI7
(lp2213
I4
aI1
a(I3
I2
tp2214
asI40
(lp2215
I1
aI1
a(I0
I1
tp2216
asI105
(lp2217
I0
aI2
a(I0
I0
tp2218
asI107
(lp2219
I2
aI0
a(I2
I1
tp2220
asI79
(lp2221
I2
aI1
a(I2
I0
tp2222
asI16
(lp2223
(I2
I2
tp2224
a(I4
I1
tp2225
asI83
(lp2226
I3
aI0
a(I2
I0
tp2227
asI54
(lp2228
I1
aI0
a(I2
I1
tp2229
asI55
(lp2230
I3
aI2
a(I1
I1
tp2231
asI91
(lp2232
I2
aI2
a(I1
I0
tp2233
asI93
(lp2234
I0
aI1
a(I5
I0
tp2235
asI134
(lp2236
I1
aI1
a(I1
I5
tp2237
assI107
(dp2238
I129
(lp2239
I0
aI2
a(I1
I1
tp2240
asI131
(lp2241
I1
aI3
a(I1
I2
tp2242
asI100
(lp2243
I0
aI1
a(I1
I0
tp2244
asI134
(lp2245
I1
aI3
a(I2
I1
tp2246
asI102
(lp2247
I0
aI2
a(I1
I1
tp2248
asI7
(lp2249
(I3
I1
tp2250
a(I3
I3
tp2251
asI40
(lp2252
I0
aI0
a(I2
I3
tp2253
asI9
(lp2254
I0
aI2
a(I1
I2
tp2255
asI79
(lp2256
I1
aI0
a(I0
I2
tp2257
asI16
(lp2258
I0
aI1
a(I2
I3
tp2259
asI83
(lp2260
I3
aI0
a(I2
I0
tp2261
asI105
(lp2262
I0
aI1
a(I0
I1
tp2263
asI54
(lp2264
I1
aI2
a(I0
I2
tp2265
asI55
(lp2266
I1
aI2
a(I1
I1
tp2267
asI6
(lp2268
I1
aI4
a(I3
I2
tp2269
asI91
(lp2270
I0
aI1
a(I2
I4
tp2271
asI93
(lp2272
I2
aI1
a(I0
I1
tp2273
assI79
(dp2274
I129
(lp2275
I3
aI3
a(I1
I1
tp2276
asI131
(lp2277
I1
aI3
a(I1
I0
tp2278
asI100
(lp2279
I0
aI1
a(I0
I0
tp2280
asI102
(lp2281
I2
aI1
a(I1
I1
tp2282
asI134
(lp2283
I0
aI1
a(I0
I2
tp2284
asI7
(lp2285
I2
aI0
a(I0
I0
tp2286
asI40
(lp2287
I0
aI3
a(I1
I1
tp2288
asI105
(lp2289
(I0
I2
tp2290
a(I0
I2
tp2291
asI107
(lp2292
I0
aI1
a(I2
I0
tp2293
asI16
(lp2294
I0
aI1
a(I0
I3
tp2295
asI83
(lp2296
I1
aI3
a(I2
I2
tp2297
asI9
(lp2298
I1
aI2
a(I0
I2
tp2299
asI54
(lp2300
I2
aI1
a(I0
I1
tp2301
asI55
(lp2302
I2
aI2
a(I1
I2
tp2303
asI6
(lp2304
I1
aI2
a(I1
I4
tp2305
asI91
(lp2306
I5
aI1
a(I3
I1
tp2307
asI93
(lp2308
I1
aI1
a(I1
I1
tp2309
assI16
(dp2310
I129
(lp2311
I1
aI0
a(I1
I1
tp2312
asI131
(lp2313
I3
aI1
a(I0
I4
tp2314
asI100
(lp2315
I1
aI4
a(I1
I0
tp2316
asI102
(lp2317
I1
aI2
a(I4
I1
tp2318
asI134
(lp2319
I1
aI4
a(I6
I3
tp2320
asI7
(lp2321
I1
aI2
a(I2
I3
tp2322
asI40
(lp2323
I3
aI1
a(I1
I4
tp2324
asI9
(lp2325
(I2
I2
tp2326
a(I1
I4
tp2327
asI107
(lp2328
I1
aI0
a(I3
I2
tp2329
asI79
(lp2330
I1
aI0
a(I3
I0
tp2331
asI83
(lp2332
I0
aI2
a(I2
I2
tp2333
asI54
(lp2334
I1
aI3
a(I1
I3
tp2335
asI105
(lp2336
I0
aI1
a(I3
I1
tp2337
asI55
(lp2338
I0
aI2
a(I0
I0
tp2339
asI6
(lp2340
I1
aI0
a(I0
I3
tp2341
asI91
(lp2342
I4
aI1
a(I4
I1
tp2343
asI93
(lp2344
I3
aI0
a(I1
I0
tp2345
assI83
(dp2346
I129
(lp2347
I0
aI3
a(I2
I0
tp2348
asI131
(lp2349
(I3
I1
tp2350
a(I0
I1
tp2351
asI100
(lp2352
I0
aI1
a(I1
I1
tp2353
asI134
(lp2354
I1
aI8
a(I1
I1
tp2355
asI102
(lp2356
I4
aI2
a(I1
I1
tp2357
asI7
(lp2358
I1
aI6
a(I2
I2
tp2359
asI40
(lp2360
I0
aI1
a(I0
I2
tp2361
asI9
(lp2362
I0
aI3
a(I0
I2
tp2363
asI107
(lp2364
I0
aI3
a(I0
I2
tp2365
asI79
(lp2366
I3
aI1
a(I2
I2
tp2367
asI16
(lp2368
I2
aI0
a(I2
I2
tp2369
asI105
(lp2370
I0
aI0
a(I1
I0
tp2371
asI54
(lp2372
I2
aI0
a(I0
I1
tp2373
asI55
(lp2374
I0
aI2
a(I2
I2
tp2375
asI6
(lp2376
I0
aI4
a(I1
I0
tp2377
asI91
(lp2378
I2
aI2
a(I1
I2
tp2379
asI93
(lp2380
I1
aI1
a(I0
I1
tp2381
assI105
(dp2382
I129
(lp2383
I2
aI2
a(I1
I3
tp2384
asI131
(lp2385
I2
aI1
a(I3
I1
tp2386
asI100
(lp2387
I1
aI1
a(I0
I7
tp2388
asI102
(lp2389
I0
aI0
a(I1
I2
tp2390
asI6
(lp2391
I0
aI3
a(I2
I2
tp2392
asI7
(lp2393
I3
aI1
a(I1
I1
tp2394
asI40
(lp2395
I1
aI4
a(I0
I2
tp2396
asI9
(lp2397
I2
aI0
a(I0
I0
tp2398
asI107
(lp2399
I1
aI0
a(I1
I0
tp2400
asI79
(lp2401
(I2
I0
tp2402
a(I2
I0
tp2403
asI16
(lp2404
I1
aI0
a(I1
I3
tp2405
asI83
(lp2406
I0
aI0
a(I0
I1
tp2407
asI54
(lp2408
I2
aI1
a(I1
I3
tp2409
asI55
(lp2410
I1
aI2
a(I2
I2
tp2411
asI91
(lp2412
I1
aI0
a(I0
I1
tp2413
asI93
(lp2414
I0
aI2
a(I1
I1
tp2415
asI134
(lp2416
I0
aI4
a(I3
I3
tp2417
assI54
(dp2418
I129
(lp2419
I2
aI0
a(I1
I1
tp2420
asI131
(lp2421
I2
aI1
a(I0
I0
tp2422
asI100
(lp2423
I1
aI2
a(I0
I0
tp2424
asI134
(lp2425
I2
aI3
a(I1
I2
tp2426
asI102
(lp2427
I1
aI3
a(I0
I0
tp2428
asI7
(lp2429
I3
aI2
a(I1
I1
tp2430
asI40
(lp2431
I0
aI0
a(I1
I4
tp2432
asI9
(lp2433
I0
aI1
a(I1
I2
tp2434
asI107
(lp2435
I2
aI1
a(I2
I0
tp2436
asI79
(lp2437
I1
aI2
a(I1
I0
tp2438
asI16
(lp2439
I3
aI1
a(I3
I1
tp2440
asI83
(lp2441
I0
aI2
a(I1
I0
tp2442
asI105
(lp2443
I1
aI2
a(I3
I1
tp2444
asI55
(lp2445
I1
aI0
a(I2
I2
tp2446
asI6
(lp2447
I0
aI3
a(I2
I1
tp2448
asI91
(lp2449
(I0
I1
tp2450
a(I0
I3
tp2451
asI93
(lp2452
I0
aI0
a(I1
I2
tp2453
assI55
(dp2454
I129
(lp2455
I3
aI2
a(I1
I2
tp2456
asI131
(lp2457
I2
aI2
a(I2
I3
tp2458
asI100
(lp2459
(I0
I1
tp2460
a(I1
I1
tp2461
asI102
(lp2462
I3
aI0
a(I3
I0
tp2463
asI6
(lp2464
I0
aI3
a(I0
I2
tp2465
asI7
(lp2466
I2
aI1
a(I3
I1
tp2467
asI40
(lp2468
I0
aI3
a(I0
I3
tp2469
asI105
(lp2470
I2
aI1
a(I2
I2
tp2471
asI107
(lp2472
I2
aI1
a(I1
I1
tp2473
asI79
(lp2474
I2
aI2
a(I2
I1
tp2475
asI16
(lp2476
I2
aI0
a(I0
I0
tp2477
asI83
(lp2478
I2
aI0
a(I2
I2
tp2479
asI54
(lp2480
I0
aI1
a(I2
I2
tp2481
asI9
(lp2482
I2
aI3
a(I1
I1
tp2483
asI91
(lp2484
I0
aI0
a(I2
I1
tp2485
asI93
(lp2486
I1
aI5
a(I4
I0
tp2487
asI134
(lp2488
I4
aI3
a(I1
I6
tp2489
assI91
(dp2490
I129
(lp2491
I0
aI0
a(I1
I1
tp2492
asI131
(lp2493
I2
aI2
a(I2
I3
tp2494
asI100
(lp2495
I2
aI1
a(I1
I4
tp2496
asI134
(lp2497
I1
aI2
a(I1
I0
tp2498
asI102
(lp2499
I1
aI0
a(I0
I1
tp2500
asI7
(lp2501
I1
aI1
a(I1
I1
tp2502
asI40
(lp2503
I0
aI0
a(I1
I3
tp2504
asI105
(lp2505
I0
aI1
a(I1
I0
tp2506
asI107
(lp2507
I1
aI0
a(I4
I2
tp2508
asI79
(lp2509
I1
aI5
a(I1
I3
tp2510
asI16
(lp2511
I1
aI4
a(I1
I4
tp2512
asI83
(lp2513
I2
aI2
a(I2
I1
tp2514
asI9
(lp2515
I2
aI2
a(I0
I1
tp2516
asI54
(lp2517
(I1
I0
tp2518
a(I3
I0
tp2519
asI55
(lp2520
I0
aI0
a(I1
I2
tp2521
asI6
(lp2522
I2
aI1
a(I2
I0
tp2523
asI93
(lp2524
I2
aI2
a(I2
I1
tp2525
assI93
(dp2526
I129
(lp2527
I1
aI2
a(I3
I3
tp2528
asI131
(lp2529
I1
aI2
a(I0
I3
tp2530
asI100
(lp2531
I0
aI0
a(I2
I0
tp2532
asI102
(lp2533
I2
aI3
a(I2
I1
tp2534
asI6
(lp2535
(I0
I0
tp2536
a(I2
I3
tp2537
asI7
(lp2538
I0
aI3
a(I0
I2
tp2539
asI40
(lp2540
I0
aI5
a(I2
I0
tp2541
asI9
(lp2542
I1
aI0
a(I0
I5
tp2543
asI107
(lp2544
I1
aI2
a(I1
I0
tp2545
asI79
(lp2546
I1
aI1
a(I1
I1
tp2547
asI16
(lp2548
I0
aI3
a(I0
I1
tp2549
asI83
(lp2550
I1
aI1
a(I1
I0
tp2551
asI54
(lp2552
I0
aI0
a(I2
I1
tp2553
asI105
(lp2554
I2
aI0
a(I1
I1
tp2555
asI55
(lp2556
I5
aI1
a(I0
I4
tp2557
asI91
(lp2558
I2
aI2
a(I1
I2
tp2559
asI134
(lp2560
I0
aI2
a(I0
I2
tp2561
assI134
(dp2562
I129
(lp2563
(I2
I2
tp2564
a(I1
I2
tp2565
asI131
(lp2566
I1
aI1
a(I0
I1
tp2567
asI100
(lp2568
I2
aI1
a(I1
I0
tp2569
asI6
(lp2570
I5
aI2
a(I1
I0
tp2571
asI102
(lp2572
I1
aI0
a(I2
I1
tp2573
asI7
(lp2574
I0
aI3
a(I2
I0
tp2575
asI40
(lp2576
I0
aI4
a(I1
I1
tp2577
asI9
(lp2578
I1
aI1
a(I5
I1
tp2579
asI107
(lp2580
I3
aI1
a(I1
I2
tp2581
asI79
(lp2582
I1
aI0
a(I2
I0
tp2583
asI16
(lp2584
I4
aI1
a(I3
I6
tp2585
asI83
(lp2586
I8
aI1
a(I1
I1
tp2587
asI54
(lp2588
I3
aI2
a(I2
I1
tp2589
asI105
(lp2590
I4
aI0
a(I3
I3
tp2591
asI55
(lp2592
I3
aI4
a(I6
I1
tp2593
asI91
(lp2594
I2
aI1
a(I0
I1
tp2595
asI93
(lp2596
I2
aI0
a(I2
I0
tp2597
asssI2008
(dp2598
I65
(dp2599
I123
(lp2600
I1
aI3
a(I0
I2
tp2601
asI129
(lp2602
I2
aI1
a(I1
I1
tp2603
asI131
(lp2604
(I1
I2
tp2605
a(I1
I1
tp2606
asI100
(lp2607
I1
aI2
a(I1
I0
tp2608
asI134
(lp2609
I1
aI3
a(I1
I0
tp2610
asI6
(lp2611
I0
aI2
a(I0
I2
tp2612
asI7
(lp2613
I0
aI1
a(I1
I3
tp2614
asI40
(lp2615
I0
aI3
a(I2
I1
tp2616
asI105
(lp2617
I2
aI0
a(I0
I0
tp2618
asI87
(lp2619
I2
aI1
a(I2
I4
tp2620
asI16
(lp2621
I3
aI1
a(I0
I3
tp2622
asI83
(lp2623
I0
aI2
a(I1
I1
tp2624
asI54
(lp2625
I1
aI2
a(I1
I2
tp2626
asI9
(lp2627
I1
aI0
a(I0
I1
tp2628
asI55
(lp2629
I2
aI1
a(I1
I2
tp2630
asI91
(lp2631
I1
aI1
a(I2
I2
tp2632
asI93
(lp2633
I1
aI0
a(I2
I0
tp2634
assI131
(dp2635
I65
(lp2636
(I2
I1
tp2637
a(I1
I1
tp2638
asI123
(lp2639
I2
aI3
a(I4
I0
tp2640
asI100
(lp2641
I3
aI0
a(I3
I1
tp2642
asI134
(lp2643
I1
aI2
a(I5
I1
tp2644
asI6
(lp2645
I0
aI2
a(I2
I1
tp2646
asI129
(lp2647
I2
aI2
a(I2
I0
tp2648
asI40
(lp2649
I2
aI4
a(I5
I1
tp2650
asI105
(lp2651
I1
aI2
a(I1
I0
tp2652
asI87
(lp2653
I3
aI0
a(I2
I1
tp2654
asI16
(lp2655
I4
aI1
a(I1
I4
tp2656
asI83
(lp2657
I4
aI1
a(I3
I0
tp2658
asI54
(lp2659
I2
aI2
a(I2
I1
tp2660
asI9
(lp2661
I2
aI2
a(I4
I3
tp2662
asI7
(lp2663
I0
aI0
a(I3
I0
tp2664
asI55
(lp2665
I2
aI1
a(I5
I0
tp2666
asI91
(lp2667
I2
aI2
a(I2
I0
tp2668
asI93
(lp2669
I3
aI0
a(I0
I2
tp2670
assI100
(dp2671
I129
(lp2672
I1
aI1
a(I3
I1
tp2673
asI131
(lp2674
I0
aI3
a(I1
I3
tp2675
asI134
(lp2676
I2
aI1
a(I0
I2
tp2677
asI6
(lp2678
I3
aI2
a(I2
I1
tp2679
asI7
(lp2680
I2
aI1
a(I0
I2
tp2681
asI40
(lp2682
(I2
I2
tp2683
a(I1
I0
tp2684
asI105
(lp2685
I2
aI1
a(I2
I3
tp2686
asI55
(lp2687
I0
aI3
a(I2
I1
tp2688
asI16
(lp2689
I2
aI0
a(I0
I1
tp2690
asI91
(lp2691
I1
aI0
a(I3
I2
tp2692
asI83
(lp2693
I4
aI2
a(I2
I0
tp2694
asI9
(lp2695
I1
aI1
a(I2
I1
tp2696
asI54
(lp2697
I1
aI2
a(I1
I1
tp2698
asI87
(lp2699
I1
aI0
a(I1
I4
tp2700
asI123
(lp2701
I0
aI3
a(I1
I0
tp2702
asI93
(lp2703
I2
aI1
a(I2
I0
tp2704
asI65
(lp2705
I2
aI1
a(I0
I1
tp2706
assI134
(dp2707
I129
(lp2708
I0
aI0
a(I3
I2
tp2709
asI91
(lp2710
I5
aI0
a(I5
I0
tp2711
asI100
(lp2712
I1
aI2
a(I2
I0
tp2713
asI6
(lp2714
I0
aI2
a(I1
I1
tp2715
asI7
(lp2716
I3
aI3
a(I0
I1
tp2717
asI40
(lp2718
I5
aI2
a(I0
I0
tp2719
asI9
(lp2720
I1
aI1
a(I0
I1
tp2721
asI55
(lp2722
I1
aI1
a(I4
I1
tp2723
asI16
(lp2724
I1
aI4
a(I4
I0
tp2725
asI83
(lp2726
(I2
I2
tp2727
a(I1
I2
tp2728
asI105
(lp2729
I0
aI1
a(I1
I3
tp2730
asI131
(lp2731
I2
aI1
a(I1
I5
tp2732
asI54
(lp2733
I5
aI1
a(I1
I2
tp2734
asI87
(lp2735
I2
aI3
a(I1
I1
tp2736
asI123
(lp2737
I5
aI4
a(I0
I0
tp2738
asI93
(lp2739
I3
aI0
a(I1
I2
tp2740
asI65
(lp2741
I3
aI1
a(I0
I1
tp2742
assI6
(dp2743
I129
(lp2744
I3
aI2
a(I1
I1
tp2745
asI83
(lp2746
I1
aI2
a(I2
I2
tp2747
asI91
(lp2748
I2
aI0
a(I1
I1
tp2749
asI100
(lp2750
I2
aI3
a(I1
I2
tp2751
asI134
(lp2752
I2
aI0
a(I1
I1
tp2753
asI65
(lp2754
I2
aI0
a(I2
I0
tp2755
asI7
(lp2756
(I2
I3
tp2757
a(I1
I1
tp2758
asI40
(lp2759
I0
aI2
a(I0
I3
tp2760
asI105
(lp2761
I3
aI3
a(I0
I1
tp2762
asI87
(lp2763
I3
aI1
a(I5
I0
tp2764
asI16
(lp2765
I2
aI0
a(I2
I4
tp2766
asI131
(lp2767
I2
aI0
a(I1
I2
tp2768
asI9
(lp2769
I2
aI1
a(I2
I1
tp2770
asI54
(lp2771
I0
aI1
a(I0
I1
tp2772
asI55
(lp2773
I4
aI0
a(I0
I1
tp2774
asI123
(lp2775
I5
aI2
a(I4
I1
tp2776
asI93
(lp2777
I1
aI1
a(I0
I3
tp2778
assI7
(dp2779
I65
(lp2780
I1
aI0
a(I3
I1
tp2781
asI83
(lp2782
I0
aI0
a(I6
I0
tp2783
asI91
(lp2784
I4
aI0
a(I2
I0
tp2785
asI100
(lp2786
I1
aI2
a(I2
I0
tp2787
asI134
(lp2788
I3
aI3
a(I1
I0
tp2789
asI6
(lp2790
(I3
I2
tp2791
a(I1
I1
tp2792
asI129
(lp2793
I1
aI1
a(I2
I0
tp2794
asI40
(lp2795
I1
aI1
a(I1
I3
tp2796
asI9
(lp2797
I3
aI3
a(I1
I1
tp2798
asI87
(lp2799
I2
aI1
a(I1
I1
tp2800
asI16
(lp2801
I3
aI0
a(I1
I2
tp2802
asI131
(lp2803
I0
aI0
a(I0
I3
tp2804
asI105
(lp2805
I1
aI0
a(I4
I0
tp2806
asI54
(lp2807
I1
aI1
a(I3
I1
tp2808
asI55
(lp2809
I1
aI1
a(I4
I4
tp2810
asI123
(lp2811
I1
aI4
a(I0
I0
tp2812
asI93
(lp2813
I1
aI0
a(I1
I1
tp2814
assI40
(dp2815
I123
(lp2816
I2
aI1
a(I2
I2
tp2817
asI65
(lp2818
I3
aI0
a(I1
I2
tp2819
asI131
(lp2820
I4
aI2
a(I1
I5
tp2821
asI100
(lp2822
(I2
I2
tp2823
a(I0
I1
tp2824
asI6
(lp2825
I2
aI0
a(I3
I0
tp2826
asI134
(lp2827
I2
aI5
a(I0
I0
tp2828
asI7
(lp2829
I1
aI1
a(I3
I1
tp2830
asI129
(lp2831
I3
aI3
a(I3
I0
tp2832
asI105
(lp2833
I1
aI0
a(I1
I0
tp2834
asI87
(lp2835
I2
aI2
a(I2
I1
tp2836
asI16
(lp2837
I2
aI2
a(I2
I1
tp2838
asI83
(lp2839
I3
aI1
a(I1
I0
tp2840
asI9
(lp2841
I2
aI1
a(I0
I1
tp2842
asI54
(lp2843
I4
aI1
a(I1
I2
tp2844
asI55
(lp2845
I0
aI1
a(I5
I1
tp2846
asI91
(lp2847
I2
aI1
a(I4
I0
tp2848
asI93
(lp2849
I4
aI1
a(I3
I1
tp2850
assI9
(dp2851
I123
(lp2852
I1
aI1
a(I2
I3
tp2853
asI129
(lp2854
I1
aI0
a(I1
I2
tp2855
asI131
(lp2856
I2
aI2
a(I3
I4
tp2857
asI100
(lp2858
I1
aI1
a(I1
I2
tp2859
asI134
(lp2860
I1
aI1
a(I1
I0
tp2861
asI65
(lp2862
I0
aI1
a(I1
I0
tp2863
asI7
(lp2864
I3
aI3
a(I1
I1
tp2865
asI40
(lp2866
I1
aI2
a(I1
I0
tp2867
asI105
(lp2868
I3
aI0
a(I2
I0
tp2869
asI87
(lp2870
I3
aI1
a(I0
I1
tp2871
asI16
(lp2872
I0
aI2
a(I1
I2
tp2873
asI83
(lp2874
I0
aI0
a(I2
I0
tp2875
asI54
(lp2876
I1
aI0
a(I0
I0
tp2877
asI55
(lp2878
(I3
I0
tp2879
a(I0
I1
tp2880
asI6
(lp2881
I1
aI2
a(I1
I2
tp2882
asI91
(lp2883
I1
aI0
a(I2
I1
tp2884
asI93
(lp2885
I2
aI0
a(I4
I0
tp2886
assI87
(dp2887
I65
(lp2888
I1
aI2
a(I4
I2
tp2889
asI131
(lp2890
I0
aI3
a(I1
I2
tp2891
asI100
(lp2892
I0
aI1
a(I4
I1
tp2893
asI6
(lp2894
I1
aI3
a(I0
I5
tp2895
asI134
(lp2896
I3
aI2
a(I1
I1
tp2897
asI129
(lp2898
I2
aI2
a(I0
I1
tp2899
asI40
(lp2900
I2
aI2
a(I1
I2
tp2901
asI105
(lp2902
I1
aI0
a(I0
I0
tp2903
asI7
(lp2904
I1
aI2
a(I1
I1
tp2905
asI16
(lp2906
(I1
I3
tp2907
a(I0
I2
tp2908
asI91
(lp2909
I1
aI2
a(I1
I4
tp2910
asI83
(lp2911
I2
aI0
a(I1
I1
tp2912
asI9
(lp2913
I1
aI3
a(I1
I0
tp2914
asI54
(lp2915
I0
aI1
a(I1
I2
tp2916
asI55
(lp2917
I1
aI5
a(I3
I2
tp2918
asI123
(lp2919
I0
aI1
a(I1
I1
tp2920
asI93
(lp2921
I1
aI3
a(I1
I0
tp2922
assI129
(dp2923
I65
(lp2924
I1
aI2
a(I1
I1
tp2925
asI131
(lp2926
I2
aI2
a(I0
I2
tp2927
asI100
(lp2928
I1
aI1
a(I1
I3
tp2929
asI134
(lp2930
I0
aI0
a(I2
I3
tp2931
asI6
(lp2932
I2
aI3
a(I1
I1
tp2933
asI7
(lp2934
I1
aI1
a(I0
I2
tp2935
asI40
(lp2936
I3
aI3
a(I0
I3
tp2937
asI105
(lp2938
(I0
I1
tp2939
a(I2
I0
tp2940
asI87
(lp2941
I2
aI2
a(I1
I0
tp2942
asI16
(lp2943
I0
aI2
a(I1
I2
tp2944
asI91
(lp2945
I0
aI4
a(I2
I0
tp2946
asI83
(lp2947
I2
aI0
a(I1
I1
tp2948
asI54
(lp2949
I2
aI3
a(I0
I2
tp2950
asI9
(lp2951
I0
aI1
a(I2
I1
tp2952
asI55
(lp2953
I1
aI1
a(I0
I2
tp2954
asI123
(lp2955
I1
aI3
a(I3
I0
tp2956
asI93
(lp2957
I1
aI1
a(I3
I2
tp2958
assI16
(dp2959
I129
(lp2960
I2
aI0
a(I2
I1
tp2961
asI91
(lp2962
I2
aI2
a(I2
I0
tp2963
asI100
(lp2964
I0
aI2
a(I1
I0
tp2965
asI134
(lp2966
I4
aI1
a(I0
I4
tp2967
asI6
(lp2968
I0
aI2
a(I4
I2
tp2969
asI7
(lp2970
I0
aI3
a(I2
I1
tp2971
asI40
(lp2972
I2
aI2
a(I1
I2
tp2973
asI105
(lp2974
I3
aI1
a(I2
I0
tp2975
asI87
(lp2976
(I3
I1
tp2977
a(I2
I0
tp2978
asI83
(lp2979
I0
aI0
a(I2
I2
tp2980
asI9
(lp2981
I2
aI0
a(I2
I1
tp2982
asI131
(lp2983
I1
aI4
a(I4
I1
tp2984
asI54
(lp2985
I1
aI2
a(I2
I0
tp2986
asI55
(lp2987
I2
aI0
a(I3
I3
tp2988
asI123
(lp2989
I0
aI0
a(I3
I3
tp2990
asI93
(lp2991
I3
aI0
a(I2
I0
tp2992
asI65
(lp2993
I1
aI3
a(I3
I0
tp2994
assI91
(dp2995
I65
(lp2996
I1
aI1
a(I2
I2
tp2997
asI131
(lp2998
I2
aI2
a(I0
I2
tp2999
asI100
(lp3000
I0
aI1
a(I2
I3
tp3001
asI134
(lp3002
I0
aI5
a(I0
I5
tp3003
asI6
(lp3004
I0
aI2
a(I1
I1
tp3005
asI7
(lp3006
I0
aI4
a(I0
I2
tp3007
asI40
(lp3008
I1
aI2
a(I0
I4
tp3009
asI9
(lp3010
I0
aI1
a(I1
I2
tp3011
asI87
(lp3012
I2
aI1
a(I4
I1
tp3013
asI129
(lp3014
I4
aI0
a(I0
I2
tp3015
asI16
(lp3016
I2
aI2
a(I0
I2
tp3017
asI83
(lp3018
I1
aI1
a(I0
I0
tp3019
asI54
(lp3020
(I0
I2
tp3021
a(I1
I2
tp3022
asI105
(lp3023
I2
aI1
a(I1
I0
tp3024
asI55
(lp3025
I4
aI0
a(I1
I1
tp3026
asI123
(lp3027
I1
aI2
a(I1
I1
tp3028
asI93
(lp3029
I3
aI2
a(I2
I1
tp3030
assI83
(dp3031
I129
(lp3032
I0
aI2
a(I1
I1
tp3033
asI131
(lp3034
I1
aI4
a(I0
I3
tp3035
asI100
(lp3036
I2
aI4
a(I0
I2
tp3037
asI6
(lp3038
I2
aI1
a(I2
I2
tp3039
asI134
(lp3040
(I2
I2
tp3041
a(I2
I1
tp3042
asI65
(lp3043
I2
aI0
a(I1
I1
tp3044
asI40
(lp3045
I1
aI3
a(I0
I1
tp3046
asI105
(lp3047
I1
aI2
a(I1
I0
tp3048
asI87
(lp3049
I0
aI2
a(I1
I1
tp3050
asI16
(lp3051
I0
aI0
a(I2
I2
tp3052
asI123
(lp3053
I0
aI3
a(I0
I2
tp3054
asI54
(lp3055
I1
aI1
a(I1
I1
tp3056
asI9
(lp3057
I0
aI0
a(I0
I2
tp3058
asI7
(lp3059
I0
aI0
a(I0
I6
tp3060
asI55
(lp3061
I1
aI1
a(I2
I2
tp3062
asI91
(lp3063
I1
aI1
a(I0
I0
tp3064
asI93
(lp3065
I1
aI1
a(I1
I2
tp3066
assI105
(dp3067
I123
(lp3068
I1
aI4
a(I2
I2
tp3069
asI129
(lp3070
(I1
I0
tp3071
a(I0
I2
tp3072
asI131
(lp3073
I2
aI1
a(I0
I1
tp3074
asI100
(lp3075
I1
aI2
a(I3
I2
tp3076
asI134
(lp3077
I1
aI0
a(I3
I1
tp3078
asI6
(lp3079
I3
aI3
a(I1
I0
tp3080
asI65
(lp3081
I0
aI2
a(I0
I0
tp3082
asI40
(lp3083
I0
aI1
a(I0
I1
tp3084
asI9
(lp3085
I0
aI3
a(I0
I2
tp3086
asI7
(lp3087
I0
aI1
a(I0
I4
tp3088
asI16
(lp3089
I1
aI3
a(I0
I2
tp3090
asI83
(lp3091
I2
aI1
a(I0
I1
tp3092
asI54
(lp3093
I0
aI4
a(I4
I0
tp3094
asI87
(lp3095
I0
aI1
a(I0
I0
tp3096
asI55
(lp3097
I2
aI3
a(I2
I3
tp3098
asI91
(lp3099
I1
aI2
a(I0
I1
tp3100
asI93
(lp3101
I0
aI1
a(I0
I0
tp3102
assI54
(dp3103
I123
(lp3104
I1
aI0
a(I1
I0
tp3105
asI129
(lp3106
I3
aI2
a(I2
I0
tp3107
asI131
(lp3108
I2
aI2
a(I1
I2
tp3109
asI100
(lp3110
I2
aI1
a(I1
I1
tp3111
asI134
(lp3112
I1
aI5
a(I2
I1
tp3113
asI6
(lp3114
I1
aI0
a(I1
I0
tp3115
asI7
(lp3116
I1
aI1
a(I1
I3
tp3117
asI40
(lp3118
I1
aI4
a(I2
I1
tp3119
asI9
(lp3120
I0
aI1
a(I0
I0
tp3121
asI55
(lp3122
I3
aI0
a(I0
I2
tp3123
asI16
(lp3124
I2
aI1
a(I0
I2
tp3125
asI83
(lp3126
I1
aI1
a(I1
I1
tp3127
asI105
(lp3128
I4
aI0
a(I0
I4
tp3129
asI87
(lp3130
I1
aI0
a(I2
I1
tp3131
asI91
(lp3132
(I2
I0
tp3133
a(I2
I1
tp3134
asI93
(lp3135
I0
aI1
a(I3
I1
tp3136
asI65
(lp3137
I2
aI1
a(I2
I1
tp3138
assI55
(dp3139
I65
(lp3140
I1
aI2
a(I2
I1
tp3141
asI83
(lp3142
I1
aI1
a(I2
I2
tp3143
asI91
(lp3144
I0
aI4
a(I1
I1
tp3145
asI100
(lp3146
I3
aI0
a(I1
I2
tp3147
asI134
(lp3148
I1
aI1
a(I1
I4
tp3149
asI6
(lp3150
I0
aI4
a(I1
I0
tp3151
asI7
(lp3152
I1
aI1
a(I4
I4
tp3153
asI40
(lp3154
I1
aI0
a(I1
I5
tp3155
asI9
(lp3156
(I0
I3
tp3157
a(I1
I0
tp3158
asI129
(lp3159
I1
aI1
a(I2
I0
tp3160
asI16
(lp3161
I0
aI2
a(I3
I3
tp3162
asI131
(lp3163
I1
aI2
a(I0
I5
tp3164
asI105
(lp3165
I3
aI2
a(I3
I2
tp3166
asI54
(lp3167
I0
aI3
a(I2
I0
tp3168
asI87
(lp3169
I5
aI1
a(I2
I3
tp3170
asI123
(lp3171
I2
aI5
a(I2
I2
tp3172
asI93
(lp3173
I0
aI0
a(I1
I3
tp3174
assI123
(dp3175
I129
(lp3176
I3
aI1
a(I0
I3
tp3177
asI131
(lp3178
I3
aI2
a(I0
I4
tp3179
asI100
(lp3180
I3
aI0
a(I0
I1
tp3181
asI6
(lp3182
I2
aI5
a(I1
I4
tp3183
asI134
(lp3184
I4
aI5
a(I0
I0
tp3185
asI7
(lp3186
I4
aI1
a(I0
I0
tp3187
asI40
(lp3188
I1
aI2
a(I2
I2
tp3189
asI105
(lp3190
I4
aI1
a(I2
I2
tp3191
asI55
(lp3192
I5
aI2
a(I2
I2
tp3193
asI16
(lp3194
I0
aI0
a(I3
I3
tp3195
asI83
(lp3196
I3
aI0
a(I2
I0
tp3197
asI9
(lp3198
I1
aI1
a(I3
I2
tp3199
asI54
(lp3200
I0
aI1
a(I0
I1
tp3201
asI87
(lp3202
I1
aI0
a(I1
I1
tp3203
asI91
(lp3204
I2
aI1
a(I1
I1
tp3205
asI93
(lp3206
(I3
I0
tp3207
a(I2
I0
tp3208
asI65
(lp3209
I3
aI1
a(I2
I0
tp3210
assI93
(dp3211
I129
(lp3212
I1
aI1
a(I2
I3
tp3213
asI91
(lp3214
I2
aI3
a(I1
I2
tp3215
asI100
(lp3216
I1
aI2
a(I0
I2
tp3217
asI6
(lp3218
I1
aI1
a(I3
I0
tp3219
asI134
(lp3220
I0
aI3
a(I2
I1
tp3221
asI7
(lp3222
I0
aI1
a(I1
I1
tp3223
asI40
(lp3224
I1
aI4
a(I1
I3
tp3225
asI9
(lp3226
I0
aI2
a(I0
I4
tp3227
asI87
(lp3228
I3
aI1
a(I0
I1
tp3229
asI16
(lp3230
I0
aI3
a(I0
I2
tp3231
asI83
(lp3232
I1
aI1
a(I2
I1
tp3233
asI105
(lp3234
I1
aI0
a(I0
I0
tp3235
asI131
(lp3236
I0
aI3
a(I2
I0
tp3237
asI54
(lp3238
I1
aI0
a(I1
I3
tp3239
asI55
(lp3240
I0
aI0
a(I3
I1
tp3241
asI123
(lp3242
(I0
I3
tp3243
a(I0
I2
tp3244
asI65
(lp3245
I0
aI1
a(I0
I2
tp3246
asssI2009
(dp3247
I65
(dp3248
I129
(lp3249
I0
aI0
a(I2
I0
tp3250
asI131
(lp3251
I1
aI3
a(I3
I2
tp3252
asI100
(lp3253
I1
aI3
a(I3
I3
tp3254
asI134
(lp3255
I0
aI0
a(I0
I1
tp3256
asI6
(lp3257
I0
aI1
a(I0
I0
tp3258
asI7
(lp3259
(I0
I1
tp3260
a(I2
I3
tp3261
asI40
(lp3262
I0
aI0
a(I1
I1
tp3263
asI9
(lp3264
I1
aI2
a(I0
I2
tp3265
asI55
(lp3266
I0
aI1
a(I4
I1
tp3267
asI112
(lp3268
I0
aI0
a(I2
I2
tp3269
asI79
(lp3270
I3
aI0
a(I0
I1
tp3271
asI16
(lp3272
I2
aI0
a(I1
I5
tp3273
asI81
(lp3274
I1
aI0
a(I0
I1
tp3275
asI123
(lp3276
I0
aI4
a(I2
I0
tp3277
asI54
(lp3278
I1
aI0
a(I0
I3
tp3279
asI87
(lp3280
I0
aI0
a(I1
I1
tp3281
asI91
(lp3282
I0
aI0
a(I2
I1
tp3283
assI131
(dp3284
I65
(lp3285
I3
aI1
a(I2
I3
tp3286
asI91
(lp3287
I2
aI2
a(I3
I1
tp3288
asI100
(lp3289
I2
aI4
a(I1
I1
tp3290
asI134
(lp3291
I2
aI2
a(I2
I4
tp3292
asI6
(lp3293
I2
aI3
a(I1
I2
tp3294
asI129
(lp3295
I1
aI1
a(I4
I1
tp3296
asI40
(lp3297
I0
aI3
a(I1
I3
tp3298
asI9
(lp3299
I2
aI1
a(I2
I1
tp3300
asI87
(lp3301
I2
aI1
a(I4
I0
tp3302
asI112
(lp3303
I2
aI2
a(I0
I1
tp3304
asI79
(lp3305
I2
aI3
a(I2
I0
tp3306
asI16
(lp3307
(I2
I0
tp3308
a(I1
I3
tp3309
asI81
(lp3310
I3
aI3
a(I2
I0
tp3311
asI54
(lp3312
I0
aI0
a(I1
I5
tp3313
asI55
(lp3314
I4
aI2
a(I1
I0
tp3315
asI7
(lp3316
I1
aI3
a(I1
I1
tp3317
asI123
(lp3318
I2
aI1
a(I4
I0
tp3319
assI112
(dp3320
I129
(lp3321
I2
aI1
a(I1
I1
tp3322
asI123
(lp3323
I0
aI1
a(I1
I1
tp3324
asI100
(lp3325
(I1
I1
tp3326
a(I0
I2
tp3327
asI134
(lp3328
I0
aI6
a(I0
I4
tp3329
asI6
(lp3330
I0
aI5
a(I1
I3
tp3331
asI65
(lp3332
I0
aI0
a(I2
I2
tp3333
asI40
(lp3334
I1
aI2
a(I1
I2
tp3335
asI9
(lp3336
I1
aI0
a(I0
I0
tp3337
asI55
(lp3338
I2
aI5
a(I1
I2
tp3339
asI79
(lp3340
I1
aI0
a(I2
I1
tp3341
asI16
(lp3342
I2
aI4
a(I0
I1
tp3343
asI81
(lp3344
I0
aI3
a(I1
I0
tp3345
asI131
(lp3346
I2
aI2
a(I1
I0
tp3347
asI54
(lp3348
I4
aI0
a(I0
I3
tp3349
asI87
(lp3350
I3
aI0
a(I1
I1
tp3351
asI7
(lp3352
I0
aI1
a(I3
I1
tp3353
asI91
(lp3354
I0
aI2
a(I1
I2
tp3355
assI6
(dp3356
I129
(lp3357
I2
aI1
a(I1
I1
tp3358
asI131
(lp3359
I3
aI2
a(I2
I1
tp3360
asI100
(lp3361
I0
aI0
a(I4
I2
tp3362
asI134
(lp3363
I0
aI0
a(I2
I2
tp3364
asI65
(lp3365
I1
aI0
a(I0
I0
tp3366
asI40
(lp3367
I1
aI1
a(I1
I1
tp3368
asI9
(lp3369
I2
aI2
a(I0
I2
tp3370
asI7
(lp3371
I1
aI1
a(I0
I3
tp3372
asI79
(lp3373
I4
aI0
a(I2
I3
tp3374
asI112
(lp3375
I5
aI0
a(I3
I1
tp3376
asI81
(lp3377
(I2
I2
tp3378
a(I4
I2
tp3379
asI91
(lp3380
I4
aI0
a(I2
I3
tp3381
asI54
(lp3382
I2
aI2
a(I1
I1
tp3383
asI55
(lp3384
I0
aI0
a(I3
I0
tp3385
asI87
(lp3386
I3
aI2
a(I1
I1
tp3387
asI123
(lp3388
I1
aI0
a(I3
I0
tp3389
asI16
(lp3390
I4
aI0
a(I1
I2
tp3391
assI134
(dp3392
I129
(lp3393
I4
aI1
a(I3
I2
tp3394
asI123
(lp3395
I2
aI0
a(I1
I0
tp3396
asI100
(lp3397
I1
aI2
a(I1
I1
tp3398
asI6
(lp3399
I0
aI0
a(I2
I2
tp3400
asI7
(lp3401
I1
aI1
a(I1
I2
tp3402
asI40
(lp3403
I1
aI1
a(I2
I3
tp3404
asI112
(lp3405
I6
aI0
a(I4
I0
tp3406
asI87
(lp3407
I3
aI0
a(I3
I4
tp3408
asI79
(lp3409
I2
aI2
a(I4
I2
tp3410
asI16
(lp3411
I2
aI0
a(I2
I2
tp3412
asI81
(lp3413
I3
aI0
a(I2
I1
tp3414
asI131
(lp3415
I2
aI2
a(I4
I2
tp3416
asI9
(lp3417
I0
aI2
a(I2
I0
tp3418
asI54
(lp3419
I3
aI2
a(I2
I1
tp3420
asI55
(lp3421
I0
aI0
a(I5
I1
tp3422
asI91
(lp3423
(I2
I3
tp3424
a(I0
I1
tp3425
asI65
(lp3426
I0
aI0
a(I1
I0
tp3427
assI7
(dp3428
I65
(lp3429
(I1
I0
tp3430
a(I3
I2
tp3431
asI123
(lp3432
I2
aI1
a(I1
I1
tp3433
asI100
(lp3434
I1
aI4
a(I1
I0
tp3435
asI134
(lp3436
I1
aI1
a(I2
I1
tp3437
asI6
(lp3438
I1
aI1
a(I3
I0
tp3439
asI129
(lp3440
I2
aI0
a(I4
I1
tp3441
asI40
(lp3442
I1
aI5
a(I1
I3
tp3443
asI9
(lp3444
I0
aI1
a(I1
I2
tp3445
asI87
(lp3446
I1
aI0
a(I3
I0
tp3447
asI112
(lp3448
I1
aI0
a(I1
I3
tp3449
asI79
(lp3450
I4
aI0
a(I3
I2
tp3451
asI16
(lp3452
I1
aI1
a(I1
I4
tp3453
asI81
(lp3454
I0
aI0
a(I0
I1
tp3455
asI131
(lp3456
I3
aI1
a(I1
I1
tp3457
asI54
(lp3458
I2
aI0
a(I0
I0
tp3459
asI55
(lp3460
I1
aI1
a(I4
I1
tp3461
asI91
(lp3462
I1
aI1
a(I2
I3
tp3463
assI40
(dp3464
I65
(lp3465
I0
aI0
a(I1
I1
tp3466
asI131
(lp3467
I3
aI0
a(I3
I1
tp3468
asI100
(lp3469
I0
aI1
a(I1
I0
tp3470
asI6
(lp3471
I1
aI1
a(I1
I1
tp3472
asI134
(lp3473
I1
aI1
a(I3
I2
tp3474
asI7
(lp3475
I5
aI1
a(I3
I1
tp3476
asI129
(lp3477
I5
aI1
a(I3
I1
tp3478
asI9
(lp3479
I1
aI1
a(I2
I1
tp3480
asI87
(lp3481
I2
aI1
a(I1
I1
tp3482
asI79
(lp3483
I2
aI1
a(I1
I1
tp3484
asI112
(lp3485
I2
aI1
a(I2
I1
tp3486
asI81
(lp3487
I1
aI2
a(I3
I0
tp3488
asI91
(lp3489
I2
aI1
a(I1
I2
tp3490
asI54
(lp3491
I5
aI2
a(I3
I1
tp3492
asI55
(lp3493
I3
aI0
a(I7
I0
tp3494
asI123
(lp3495
(I1
I1
tp3496
a(I2
I0
tp3497
asI16
(lp3498
I0
aI0
a(I1
I2
tp3499
assI9
(dp3500
I129
(lp3501
I3
aI0
a(I2
I2
tp3502
asI131
(lp3503
I1
aI2
a(I1
I2
tp3504
asI100
(lp3505
I3
aI3
a(I2
I2
tp3506
asI6
(lp3507
I2
aI2
a(I2
I0
tp3508
asI16
(lp3509
I2
aI1
a(I2
I1
tp3510
asI65
(lp3511
I2
aI1
a(I2
I0
tp3512
asI40
(lp3513
I1
aI1
a(I1
I2
tp3514
asI7
(lp3515
I1
aI0
a(I2
I1
tp3516
asI79
(lp3517
(I2
I1
tp3518
a(I1
I0
tp3519
asI112
(lp3520
I0
aI1
a(I0
I0
tp3521
asI81
(lp3522
I1
aI0
a(I0
I0
tp3523
asI91
(lp3524
I2
aI0
a(I4
I1
tp3525
asI54
(lp3526
I2
aI0
a(I1
I0
tp3527
asI55
(lp3528
I2
aI0
a(I2
I4
tp3529
asI87
(lp3530
I0
aI1
a(I3
I1
tp3531
asI123
(lp3532
I0
aI0
a(I2
I0
tp3533
asI134
(lp3534
I2
aI0
a(I0
I2
tp3535
assI87
(dp3536
I129
(lp3537
(I3
I3
tp3538
a(I1
I2
tp3539
asI131
(lp3540
I1
aI2
a(I0
I4
tp3541
asI100
(lp3542
I3
aI2
a(I1
I0
tp3543
asI6
(lp3544
I2
aI3
a(I1
I1
tp3545
asI134
(lp3546
I0
aI3
a(I4
I3
tp3547
asI7
(lp3548
I0
aI1
a(I0
I3
tp3549
asI40
(lp3550
I1
aI2
a(I1
I1
tp3551
asI9
(lp3552
I1
aI0
a(I1
I3
tp3553
asI79
(lp3554
I0
aI1
a(I2
I1
tp3555
asI112
(lp3556
I0
aI3
a(I1
I1
tp3557
asI81
(lp3558
I2
aI0
a(I0
I1
tp3559
asI91
(lp3560
I2
aI1
a(I2
I0
tp3561
asI54
(lp3562
I2
aI1
a(I0
I0
tp3563
asI55
(lp3564
I5
aI3
a(I1
I6
tp3565
asI123
(lp3566
I2
aI4
a(I2
I2
tp3567
asI16
(lp3568
I0
aI0
a(I1
I2
tp3569
asI65
(lp3570
I0
aI0
a(I1
I1
tp3571
assI129
(dp3572
I65
(lp3573
I0
aI0
a(I0
I2
tp3574
asI131
(lp3575
I1
aI1
a(I1
I4
tp3576
asI100
(lp3577
I1
aI0
a(I1
I2
tp3578
asI134
(lp3579
I1
aI4
a(I2
I3
tp3580
asI6
(lp3581
I1
aI2
a(I1
I1
tp3582
asI7
(lp3583
I0
aI2
a(I1
I4
tp3584
asI40
(lp3585
I1
aI5
a(I1
I3
tp3586
asI9
(lp3587
I0
aI3
a(I2
I2
tp3588
asI55
(lp3589
I3
aI2
a(I0
I3
tp3590
asI79
(lp3591
I1
aI0
a(I0
I0
tp3592
asI112
(lp3593
I1
aI2
a(I1
I1
tp3594
asI81
(lp3595
I2
aI3
a(I0
I0
tp3596
asI91
(lp3597
I1
aI2
a(I1
I2
tp3598
asI54
(lp3599
I1
aI0
a(I0
I0
tp3600
asI87
(lp3601
(I3
I3
tp3602
a(I2
I1
tp3603
asI123
(lp3604
I0
aI3
a(I2
I1
tp3605
asI16
(lp3606
I1
aI1
a(I0
I2
tp3607
assI79
(dp3608
I129
(lp3609
I0
aI1
a(I0
I0
tp3610
asI123
(lp3611
I0
aI3
a(I0
I0
tp3612
asI100
(lp3613
I0
aI4
a(I0
I4
tp3614
asI134
(lp3615
I2
aI2
a(I2
I4
tp3616
asI6
(lp3617
I0
aI4
a(I3
I2
tp3618
asI7
(lp3619
I0
aI4
a(I2
I3
tp3620
asI40
(lp3621
I1
aI2
a(I1
I1
tp3622
asI9
(lp3623
(I1
I2
tp3624
a(I0
I1
tp3625
asI55
(lp3626
I0
aI2
a(I3
I1
tp3627
asI112
(lp3628
I0
aI1
a(I1
I2
tp3629
asI16
(lp3630
I0
aI0
a(I1
I2
tp3631
asI81
(lp3632
I0
aI1
a(I2
I0
tp3633
asI131
(lp3634
I3
aI2
a(I0
I2
tp3635
asI54
(lp3636
I3
aI0
a(I2
I1
tp3637
asI87
(lp3638
I1
aI0
a(I1
I2
tp3639
asI91
(lp3640
I1
aI1
a(I1
I1
tp3641
asI65
(lp3642
I0
aI3
a(I1
I0
tp3643
assI16
(dp3644
I65
(lp3645
I0
aI2
a(I5
I1
tp3646
asI131
(lp3647
(I0
I2
tp3648
a(I3
I1
tp3649
asI100
(lp3650
I1
aI3
a(I1
I3
tp3651
asI6
(lp3652
I0
aI4
a(I2
I1
tp3653
asI134
(lp3654
I0
aI2
a(I2
I2
tp3655
asI7
(lp3656
I1
aI1
a(I4
I1
tp3657
asI40
(lp3658
I0
aI0
a(I2
I1
tp3659
asI9
(lp3660
I1
aI2
a(I1
I2
tp3661
asI87
(lp3662
I0
aI0
a(I2
I1
tp3663
asI129
(lp3664
I1
aI1
a(I2
I0
tp3665
asI79
(lp3666
I0
aI0
a(I2
I1
tp3667
asI112
(lp3668
I4
aI2
a(I1
I0
tp3669
asI81
(lp3670
I1
aI1
a(I2
I2
tp3671
asI123
(lp3672
I3
aI1
a(I1
I1
tp3673
asI54
(lp3674
I1
aI1
a(I1
I0
tp3675
asI55
(lp3676
I0
aI1
a(I2
I0
tp3677
asI91
(lp3678
I3
aI0
a(I2
I1
tp3679
assI81
(dp3680
I129
(lp3681
I3
aI2
a(I0
I0
tp3682
asI131
(lp3683
I3
aI3
a(I0
I2
tp3684
asI100
(lp3685
I1
aI1
a(I1
I0
tp3686
asI134
(lp3687
I0
aI3
a(I1
I2
tp3688
asI6
(lp3689
(I2
I2
tp3690
a(I2
I4
tp3691
asI65
(lp3692
I0
aI1
a(I1
I0
tp3693
asI40
(lp3694
I2
aI1
a(I0
I3
tp3695
asI9
(lp3696
I0
aI1
a(I0
I0
tp3697
asI55
(lp3698
I1
aI1
a(I1
I0
tp3699
asI79
(lp3700
I1
aI0
a(I0
I2
tp3701
asI112
(lp3702
I3
aI0
a(I0
I1
tp3703
asI91
(lp3704
I0
aI2
a(I3
I3
tp3705
asI54
(lp3706
I2
aI1
a(I1
I1
tp3707
asI87
(lp3708
I0
aI2
a(I1
I0
tp3709
asI7
(lp3710
I0
aI0
a(I1
I0
tp3711
asI123
(lp3712
I2
aI1
a(I1
I0
tp3713
asI16
(lp3714
I1
aI1
a(I2
I2
tp3715
assI123
(dp3716
I129
(lp3717
I3
aI0
a(I1
I2
tp3718
asI131
(lp3719
I1
aI2
a(I0
I4
tp3720
asI100
(lp3721
I0
aI0
a(I5
I1
tp3722
asI134
(lp3723
I0
aI2
a(I0
I1
tp3724
asI6
(lp3725
I0
aI1
a(I0
I3
tp3726
asI65
(lp3727
I4
aI0
a(I0
I2
tp3728
asI40
(lp3729
(I1
I1
tp3730
a(I0
I2
tp3731
asI9
(lp3732
I0
aI0
a(I0
I2
tp3733
asI55
(lp3734
I1
aI0
a(I2
I1
tp3735
asI79
(lp3736
I3
aI0
a(I0
I0
tp3737
asI112
(lp3738
I1
aI0
a(I1
I1
tp3739
asI81
(lp3740
I1
aI2
a(I0
I1
tp3741
asI54
(lp3742
I5
aI1
a(I2
I0
tp3743
asI87
(lp3744
I4
aI2
a(I2
I2
tp3745
asI7
(lp3746
I1
aI2
a(I1
I1
tp3747
asI91
(lp3748
I1
aI1
a(I2
I1
tp3749
asI16
(lp3750
I1
aI3
a(I1
I1
tp3751
assI54
(dp3752
I129
(lp3753
I0
aI1
a(I0
I0
tp3754
asI131
(lp3755
I0
aI0
a(I5
I1
tp3756
asI100
(lp3757
I1
aI3
a(I0
I1
tp3758
asI6
(lp3759
I2
aI2
a(I1
I1
tp3760
asI134
(lp3761
I2
aI3
a(I1
I2
tp3762
asI7
(lp3763
I0
aI2
a(I0
I0
tp3764
asI40
(lp3765
I2
aI5
a(I1
I3
tp3766
asI9
(lp3767
I0
aI2
a(I0
I1
tp3768
asI55
(lp3769
(I1
I0
tp3770
a(I3
I0
tp3771
asI79
(lp3772
I0
aI3
a(I1
I2
tp3773
asI112
(lp3774
I0
aI4
a(I3
I0
tp3775
asI81
(lp3776
I1
aI2
a(I1
I1
tp3777
asI91
(lp3778
I1
aI3
a(I2
I2
tp3779
asI87
(lp3780
I1
aI2
a(I0
I0
tp3781
asI123
(lp3782
I1
aI5
a(I0
I2
tp3783
asI16
(lp3784
I1
aI1
a(I0
I1
tp3785
asI65
(lp3786
I0
aI1
a(I3
I0
tp3787
assI55
(dp3788
I16
(lp3789
I1
aI0
a(I0
I2
tp3790
asI131
(lp3791
I2
aI4
a(I0
I1
tp3792
asI100
(lp3793
I2
aI2
a(I0
I0
tp3794
asI6
(lp3795
I0
aI0
a(I0
I3
tp3796
asI134
(lp3797
I0
aI0
a(I1
I5
tp3798
asI7
(lp3799
I1
aI1
a(I1
I4
tp3800
asI40
(lp3801
I0
aI3
a(I0
I7
tp3802
asI9
(lp3803
I0
aI2
a(I4
I2
tp3804
asI129
(lp3805
I2
aI3
a(I3
I0
tp3806
asI79
(lp3807
I2
aI0
a(I1
I3
tp3808
asI112
(lp3809
I5
aI2
a(I2
I1
tp3810
asI81
(lp3811
I1
aI1
a(I0
I1
tp3812
asI91
(lp3813
I1
aI2
a(I2
I1
tp3814
asI54
(lp3815
(I0
I1
tp3816
a(I0
I3
tp3817
asI87
(lp3818
I3
aI5
a(I6
I1
tp3819
asI123
(lp3820
I0
aI1
a(I1
I2
tp3821
asI65
(lp3822
I1
aI0
a(I1
I4
tp3823
assI100
(dp3824
I65
(lp3825
I3
aI1
a(I3
I3
tp3826
asI131
(lp3827
I4
aI2
a(I1
I1
tp3828
asI6
(lp3829
I0
aI0
a(I2
I4
tp3830
asI16
(lp3831
I3
aI1
a(I3
I1
tp3832
asI7
(lp3833
I4
aI1
a(I0
I1
tp3834
asI40
(lp3835
I1
aI0
a(I0
I1
tp3836
asI9
(lp3837
I3
aI3
a(I2
I2
tp3838
asI55
(lp3839
I2
aI2
a(I0
I0
tp3840
asI129
(lp3841
I0
aI1
a(I2
I1
tp3842
asI79
(lp3843
I4
aI0
a(I4
I0
tp3844
asI112
(lp3845
(I1
I1
tp3846
a(I2
I0
tp3847
asI81
(lp3848
I1
aI1
a(I0
I1
tp3849
asI123
(lp3850
I0
aI0
a(I1
I5
tp3851
asI54
(lp3852
I3
aI1
a(I1
I0
tp3853
asI87
(lp3854
I2
aI3
a(I0
I1
tp3855
asI91
(lp3856
I1
aI1
a(I0
I0
tp3857
asI134
(lp3858
I2
aI1
a(I1
I1
tp3859
assI91
(dp3860
I65
(lp3861
I0
aI0
a(I1
I2
tp3862
asI131
(lp3863
I2
aI2
a(I1
I3
tp3864
asI100
(lp3865
I1
aI1
a(I0
I0
tp3866
asI6
(lp3867
I0
aI4
a(I3
I2
tp3868
asI134
(lp3869
(I3
I2
tp3870
a(I1
I0
tp3871
asI7
(lp3872
I1
aI1
a(I3
I2
tp3873
asI40
(lp3874
I1
aI2
a(I2
I1
tp3875
asI9
(lp3876
I0
aI2
a(I1
I4
tp3877
asI87
(lp3878
I1
aI2
a(I0
I2
tp3879
asI129
(lp3880
I2
aI1
a(I2
I1
tp3881
asI79
(lp3882
I1
aI1
a(I1
I1
tp3883
asI112
(lp3884
I2
aI0
a(I2
I1
tp3885
asI81
(lp3886
I2
aI0
a(I3
I3
tp3887
asI54
(lp3888
I3
aI1
a(I2
I2
tp3889
asI55
(lp3890
I2
aI1
a(I1
I2
tp3891
asI123
(lp3892
I1
aI1
a(I1
I2
tp3893
asI16
(lp3894
I0
aI3
a(I1
I2
tp3895
asss.