(dp1
I2004
(dp2
I129
(lp3
(I2
I2
tp4
a(I2
I2
tp5
a(I2
I1
tp6
a(I2
I2
tp7
a(I1
I1
tp8
a(I1
I4
tp9
a(I2
I3
tp10
a(I0
I1
tp11
a(I0
I3
tp12
a(I3
I0
tp13
a(I0
I3
tp14
a(I1
I1
tp15
a(I1
I3
tp16
a(I0
I1
tp17
a(I3
I1
tp18
a(I2
I5
tp19
a(I1
I2
tp20
a(I2
I2
tp21
a(I0
I4
tp22
a(I1
I1
tp23
a(I0
I1
tp24
a(I3
I1
tp25
a(I0
I4
tp26
a(I0
I2
tp27
a(I1
I3
tp28
a(I5
I1
tp29
a(I2
I2
tp30
a(I1
I0
tp31
a(I2
I1
tp32
a(I1
I3
tp33
a(I2
I6
tp34
a(I1
I2
tp35
a(I2
I0
tp36
a(I1
I0
tp37
asI131
(lp38
(I2
I1
tp39
a(I0
I1
tp40
a(I2
I1
tp41
a(I3
I0
tp42
a(I2
I1
tp43
a(I2
I1
tp44
a(I2
I1
tp45
a(I0
I3
tp46
a(I3
I0
tp47
a(I0
I2
tp48
a(I4
I3
tp49
a(I0
I4
tp50
a(I3
I0
tp51
a(I1
I3
tp52
a(I2
I3
tp53
a(I1
I2
tp54
a(I5
I0
tp55
a(I1
I2
tp56
a(I0
I1
tp57
a(I2
I3
tp58
a(I0
I3
tp59
a(I4
I0
tp60
a(I0
I0
tp61
a(I0
I1
tp62
a(I1
I0
tp63
a(I1
I5
tp64
a(I0
I3
tp65
a(I2
I0
tp66
a(I0
I1
tp67
a(I0
I0
tp68
a(I1
I0
tp69
a(I1
I3
tp70
a(I2
I2
tp71
a(I2
I1
tp72
asI100
(lp73
(I0
I2
tp74
a(I1
I2
tp75
a(I4
I3
tp76
a(I0
I2
tp77
a(I1
I2
tp78
a(I2
I1
tp79
a(I0
I3
tp80
a(I0
I2
tp81
a(I2
I0
tp82
a(I4
I0
tp83
a(I1
I1
tp84
a(I1
I2
tp85
a(I6
I0
tp86
a(I3
I1
tp87
a(I3
I1
tp88
a(I0
I2
tp89
a(I2
I1
tp90
a(I0
I3
tp91
a(I2
I1
tp92
a(I3
I1
tp93
a(I2
I1
tp94
a(I2
I1
tp95
a(I1
I4
tp96
a(I1
I0
tp97
a(I4
I3
tp98
a(I2
I3
tp99
a(I1
I1
tp100
a(I1
I2
tp101
a(I2
I1
tp102
a(I3
I0
tp103
a(I0
I1
tp104
a(I0
I0
tp105
a(I1
I2
tp106
a(I0
I1
tp107
asI6
(lp108
(I2
I1
tp109
a(I2
I2
tp110
a(I4
I1
tp111
a(I0
I2
tp112
a(I2
I2
tp113
a(I0
I3
tp114
a(I3
I0
tp115
a(I1
I3
tp116
a(I0
I0
tp117
a(I3
I2
tp118
a(I0
I1
tp119
a(I4
I1
tp120
a(I2
I2
tp121
a(I0
I3
tp122
a(I2
I0
tp123
a(I2
I1
tp124
a(I1
I1
tp125
a(I3
I0
tp126
a(I4
I0
tp127
a(I0
I2
tp128
a(I2
I0
tp129
a(I4
I2
tp130
a(I1
I1
tp131
a(I0
I1
tp132
a(I3
I3
tp133
a(I2
I0
tp134
a(I0
I1
tp135
a(I0
I1
tp136
a(I3
I1
tp137
a(I2
I1
tp138
a(I3
I3
tp139
a(I3
I0
tp140
a(I2
I2
tp141
a(I5
I1
tp142
asI134
(lp143
(I1
I0
tp144
a(I4
I0
tp145
a(I1
I2
tp146
a(I1
I3
tp147
a(I3
I0
tp148
a(I4
I1
tp149
a(I1
I2
tp150
a(I1
I2
tp151
a(I4
I1
tp152
a(I2
I1
tp153
a(I1
I1
tp154
a(I1
I1
tp155
a(I2
I2
tp156
a(I1
I2
tp157
a(I2
I0
tp158
a(I6
I0
tp159
a(I1
I1
tp160
a(I1
I2
tp161
a(I3
I2
tp162
a(I3
I2
tp163
a(I2
I0
tp164
a(I4
I1
tp165
a(I4
I0
tp166
a(I0
I1
tp167
a(I0
I0
tp168
a(I2
I1
tp169
a(I1
I2
tp170
a(I2
I1
tp171
a(I0
I1
tp172
a(I1
I2
tp173
a(I3
I0
tp174
a(I0
I1
tp175
a(I4
I1
tp176
a(I2
I1
tp177
asI7
(lp178
(I1
I2
tp179
a(I3
I2
tp180
a(I1
I1
tp181
a(I2
I2
tp182
a(I2
I2
tp183
a(I1
I1
tp184
a(I2
I2
tp185
a(I0
I2
tp186
a(I0
I2
tp187
a(I1
I0
tp188
a(I1
I0
tp189
a(I0
I1
tp190
a(I0
I1
tp191
a(I2
I0
tp192
a(I0
I2
tp193
a(I0
I1
tp194
a(I1
I1
tp195
a(I2
I1
tp196
a(I1
I1
tp197
a(I3
I1
tp198
a(I1
I0
tp199
a(I0
I5
tp200
a(I3
I0
tp201
a(I2
I2
tp202
a(I0
I2
tp203
a(I3
I2
tp204
a(I2
I1
tp205
a(I1
I0
tp206
a(I1
I1
tp207
a(I4
I2
tp208
a(I2
I2
tp209
a(I1
I0
tp210
a(I2
I1
tp211
a(I2
I1
tp212
asI40
(lp213
(I2
I0
tp214
a(I1
I1
tp215
a(I1
I4
tp216
a(I1
I0
tp217
a(I2
I2
tp218
a(I3
I1
tp219
a(I2
I1
tp220
a(I0
I1
tp221
a(I2
I0
tp222
a(I2
I0
tp223
a(I0
I2
tp224
a(I3
I0
tp225
a(I3
I1
tp226
a(I3
I1
tp227
a(I4
I2
tp228
a(I2
I2
tp229
a(I2
I2
tp230
a(I3
I0
tp231
a(I0
I0
tp232
a(I2
I0
tp233
a(I1
I3
tp234
a(I5
I0
tp235
a(I1
I0
tp236
a(I1
I0
tp237
a(I0
I1
tp238
a(I3
I1
tp239
a(I3
I0
tp240
a(I2
I1
tp241
a(I1
I0
tp242
a(I3
I1
tp243
a(I4
I0
tp244
a(I4
I2
tp245
a(I6
I3
tp246
a(I3
I1
tp247
asI9
(lp248
(I0
I1
tp249
a(I2
I1
tp250
a(I0
I2
tp251
a(I0
I3
tp252
a(I3
I2
tp253
a(I0
I1
tp254
a(I3
I2
tp255
a(I1
I0
tp256
a(I2
I1
tp257
a(I2
I0
tp258
a(I3
I2
tp259
a(I2
I1
tp260
a(I1
I3
tp261
a(I3
I0
tp262
a(I2
I1
tp263
a(I1
I0
tp264
a(I1
I1
tp265
a(I2
I1
tp266
a(I0
I2
tp267
a(I2
I2
tp268
a(I3
I0
tp269
a(I3
I1
tp270
a(I1
I0
tp271
a(I2
I0
tp272
a(I1
I0
tp273
a(I1
I2
tp274
a(I4
I1
tp275
a(I0
I3
tp276
a(I1
I2
tp277
a(I1
I4
tp278
a(I3
I3
tp279
a(I2
I0
tp280
a(I1
I2
tp281
a(I3
I2
tp282
asI87
(lp283
(I0
I0
tp284
a(I2
I3
tp285
a(I1
I1
tp286
a(I3
I1
tp287
a(I2
I3
tp288
a(I2
I2
tp289
a(I1
I2
tp290
a(I2
I0
tp291
a(I0
I2
tp292
a(I0
I3
tp293
a(I2
I0
tp294
a(I1
I1
tp295
a(I2
I1
tp296
a(I0
I1
tp297
a(I1
I3
tp298
a(I0
I6
tp299
a(I1
I1
tp300
a(I1
I0
tp301
a(I1
I1
tp302
a(I3
I2
tp303
a(I0
I2
tp304
a(I1
I3
tp305
a(I0
I0
tp306
a(I1
I0
tp307
a(I0
I1
tp308
a(I1
I2
tp309
a(I2
I2
tp310
a(I1
I2
tp311
a(I1
I1
tp312
a(I0
I0
tp313
a(I2
I0
tp314
a(I0
I0
tp315
a(I0
I0
tp316
a(I1
I5
tp317
asI76
(lp318
(I1
I3
tp319
a(I1
I2
tp320
a(I2
I3
tp321
a(I3
I2
tp322
a(I2
I1
tp323
a(I1
I2
tp324
a(I0
I2
tp325
a(I0
I2
tp326
a(I0
I0
tp327
a(I1
I3
tp328
a(I2
I1
tp329
a(I1
I1
tp330
a(I1
I0
tp331
a(I1
I3
tp332
a(I3
I0
tp333
a(I2
I0
tp334
a(I1
I1
tp335
a(I3
I1
tp336
a(I2
I0
tp337
a(I1
I1
tp338
a(I2
I1
tp339
a(I1
I2
tp340
a(I0
I0
tp341
a(I1
I1
tp342
a(I1
I0
tp343
a(I0
I2
tp344
a(I0
I2
tp345
a(I2
I0
tp346
a(I1
I2
tp347
a(I2
I4
tp348
a(I0
I4
tp349
a(I2
I1
tp350
a(I2
I3
tp351
a(I1
I2
tp352
asI79
(lp353
(I3
I1
tp354
a(I1
I1
tp355
a(I3
I4
tp356
a(I0
I0
tp357
a(I2
I2
tp358
a(I1
I2
tp359
a(I2
I2
tp360
a(I3
I0
tp361
a(I1
I4
tp362
a(I0
I2
tp363
a(I2
I0
tp364
a(I4
I0
tp365
a(I1
I2
tp366
a(I1
I1
tp367
a(I1
I3
tp368
a(I2
I2
tp369
a(I1
I0
tp370
a(I1
I3
tp371
a(I4
I2
tp372
a(I1
I3
tp373
a(I1
I2
tp374
a(I2
I4
tp375
a(I1
I3
tp376
a(I2
I2
tp377
a(I3
I2
tp378
a(I1
I2
tp379
a(I1
I4
tp380
a(I3
I0
tp381
a(I1
I0
tp382
a(I0
I0
tp383
a(I0
I1
tp384
a(I2
I1
tp385
a(I3
I6
tp386
a(I1
I2
tp387
asI112
(lp388
(I0
I0
tp389
a(I1
I0
tp390
a(I1
I1
tp391
a(I2
I2
tp392
a(I1
I1
tp393
a(I1
I3
tp394
a(I1
I2
tp395
a(I0
I3
tp396
a(I2
I0
tp397
a(I0
I4
tp398
a(I1
I3
tp399
a(I1
I4
tp400
a(I2
I3
tp401
a(I0
I2
tp402
a(I0
I3
tp403
a(I0
I6
tp404
a(I1
I1
tp405
a(I0
I0
tp406
a(I1
I0
tp407
a(I2
I3
tp408
a(I0
I0
tp409
a(I1
I3
tp410
a(I0
I1
tp411
a(I0
I5
tp412
a(I2
I3
tp413
a(I0
I1
tp414
a(I1
I1
tp415
a(I1
I3
tp416
a(I1
I3
tp417
a(I1
I3
tp418
a(I2
I2
tp419
a(I1
I2
tp420
a(I1
I4
tp421
a(I2
I3
tp422
asI81
(lp423
(I2
I4
tp424
a(I2
I1
tp425
a(I1
I1
tp426
a(I2
I0
tp427
a(I1
I1
tp428
a(I1
I1
tp429
a(I2
I1
tp430
a(I2
I1
tp431
a(I1
I2
tp432
a(I3
I1
tp433
a(I3
I4
tp434
a(I1
I1
tp435
a(I0
I2
tp436
a(I1
I0
tp437
a(I2
I4
tp438
a(I0
I2
tp439
a(I0
I1
tp440
a(I2
I3
tp441
a(I1
I2
tp442
a(I0
I3
tp443
a(I0
I2
tp444
a(I0
I0
tp445
a(I0
I3
tp446
a(I5
I0
tp447
a(I0
I0
tp448
a(I2
I1
tp449
a(I0
I2
tp450
a(I0
I2
tp451
a(I1
I1
tp452
a(I2
I0
tp453
a(I6
I2
tp454
a(I2
I4
tp455
a(I3
I2
tp456
a(I2
I1
tp457
asI83
(lp458
(I0
I0
tp459
a(I1
I0
tp460
a(I1
I2
tp461
a(I0
I1
tp462
a(I1
I1
tp463
a(I2
I1
tp464
a(I0
I2
tp465
a(I2
I0
tp466
a(I1
I0
tp467
a(I2
I3
tp468
a(I1
I2
tp469
a(I1
I0
tp470
a(I3
I2
tp471
a(I2
I1
tp472
a(I1
I2
tp473
a(I1
I1
tp474
a(I0
I5
tp475
a(I0
I1
tp476
a(I0
I1
tp477
a(I1
I1
tp478
a(I3
I1
tp479
a(I0
I0
tp480
a(I3
I1
tp481
a(I1
I2
tp482
a(I3
I4
tp483
a(I0
I3
tp484
a(I1
I0
tp485
a(I0
I2
tp486
a(I1
I1
tp487
a(I3
I1
tp488
a(I0
I3
tp489
a(I0
I2
tp490
a(I1
I1
tp491
a(I1
I2
tp492
asI54
(lp493
(I2
I2
tp494
a(I1
I1
tp495
a(I1
I1
tp496
a(I0
I0
tp497
a(I0
I0
tp498
a(I1
I2
tp499
a(I2
I0
tp500
a(I3
I1
tp501
a(I0
I1
tp502
a(I0
I1
tp503
a(I3
I1
tp504
a(I1
I1
tp505
a(I3
I1
tp506
a(I1
I1
tp507
a(I3
I2
tp508
a(I6
I0
tp509
a(I1
I0
tp510
a(I2
I2
tp511
a(I0
I0
tp512
a(I3
I0
tp513
a(I2
I1
tp514
a(I0
I1
tp515
a(I4
I1
tp516
a(I1
I1
tp517
a(I3
I3
tp518
a(I3
I0
tp519
a(I1
I2
tp520
a(I3
I1
tp521
a(I1
I0
tp522
a(I4
I1
tp523
a(I1
I2
tp524
a(I3
I1
tp525
a(I0
I0
tp526
a(I0
I0
tp527
asI55
(lp528
(I1
I2
tp529
a(I0
I1
tp530
a(I1
I1
tp531
a(I2
I2
tp532
a(I0
I3
tp533
a(I1
I0
tp534
a(I3
I1
tp535
a(I3
I0
tp536
a(I2
I0
tp537
a(I3
I1
tp538
a(I3
I0
tp539
a(I0
I3
tp540
a(I2
I0
tp541
a(I1
I1
tp542
a(I0
I0
tp543
a(I2
I0
tp544
a(I0
I1
tp545
a(I0
I3
tp546
a(I1
I0
tp547
a(I1
I3
tp548
a(I0
I0
tp549
a(I1
I4
tp550
a(I0
I1
tp551
a(I0
I1
tp552
a(I0
I1
tp553
a(I2
I1
tp554
a(I2
I0
tp555
a(I0
I1
tp556
a(I0
I1
tp557
a(I0
I2
tp558
a(I1
I0
tp559
a(I0
I1
tp560
a(I2
I1
tp561
a(I0
I0
tp562
asI102
(lp563
(I0
I0
tp564
a(I0
I4
tp565
a(I2
I0
tp566
a(I2
I3
tp567
a(I1
I2
tp568
a(I2
I2
tp569
a(I1
I3
tp570
a(I1
I0
tp571
a(I0
I2
tp572
a(I1
I3
tp573
a(I0
I2
tp574
a(I0
I4
tp575
a(I0
I6
tp576
a(I1
I1
tp577
a(I0
I2
tp578
a(I1
I1
tp579
a(I1
I1
tp580
a(I0
I0
tp581
a(I2
I3
tp582
a(I2
I2
tp583
a(I1
I2
tp584
a(I0
I4
tp585
a(I0
I0
tp586
a(I1
I0
tp587
a(I3
I1
tp588
a(I1
I3
tp589
a(I2
I0
tp590
a(I0
I3
tp591
a(I2
I1
tp592
a(I0
I3
tp593
a(I2
I1
tp594
a(I0
I3
tp595
a(I1
I1
tp596
a(I1
I2
tp597
asI16
(lp598
(I4
I2
tp599
a(I1
I1
tp600
a(I3
I2
tp601
a(I2
I0
tp602
a(I0
I0
tp603
a(I3
I0
tp604
a(I2
I0
tp605
a(I2
I0
tp606
a(I0
I2
tp607
a(I1
I2
tp608
a(I2
I3
tp609
a(I4
I0
tp610
a(I0
I3
tp611
a(I1
I0
tp612
a(I0
I0
tp613
a(I5
I2
tp614
a(I2
I2
tp615
a(I3
I2
tp616
a(I2
I4
tp617
a(I1
I1
tp618
a(I1
I2
tp619
a(I1
I0
tp620
a(I1
I1
tp621
a(I2
I1
tp622
a(I2
I0
tp623
a(I1
I0
tp624
a(I2
I1
tp625
a(I3
I0
tp626
a(I1
I2
tp627
a(I0
I0
tp628
a(I0
I2
tp629
a(I1
I0
tp630
a(I0
I2
tp631
a(I1
I3
tp632
assI2005
(dp633
I65
(lp634
(I1
I0
tp635
a(I3
I2
tp636
a(I2
I3
tp637
a(I1
I2
tp638
a(I2
I1
tp639
a(I1
I2
tp640
a(I0
I1
tp641
a(I1
I2
tp642
a(I1
I4
tp643
a(I3
I6
tp644
a(I1
I2
tp645
a(I1
I1
tp646
a(I2
I2
tp647
a(I1
I1
tp648
a(I1
I3
tp649
a(I1
I4
tp650
a(I2
I3
tp651
a(I2
I4
tp652
a(I0
I0
tp653
a(I2
I2
tp654
a(I0
I0
tp655
a(I0
I2
tp656
a(I0
I3
tp657
a(I4
I2
tp658
a(I3
I4
tp659
a(I0
I1
tp660
a(I1
I1
tp661
a(I2
I2
tp662
a(I3
I0
tp663
a(I1
I1
tp664
a(I3
I1
tp665
a(I0
I1
tp666
a(I0
I6
tp667
a(I4
I2
tp668
asI131
(lp669
(I2
I2
tp670
a(I1
I1
tp671
a(I2
I1
tp672
a(I0
I3
tp673
a(I1
I1
tp674
a(I4
I2
tp675
a(I1
I0
tp676
a(I0
I2
tp677
a(I1
I0
tp678
a(I0
I0
tp679
a(I0
I1
tp680
a(I1
I1
tp681
a(I1
I6
tp682
a(I0
I0
tp683
a(I1
I5
tp684
a(I0
I1
tp685
a(I2
I3
tp686
a(I2
I3
tp687
a(I2
I0
tp688
a(I0
I4
tp689
a(I1
I1
tp690
a(I0
I1
tp691
a(I2
I1
tp692
a(I1
I1
tp693
a(I0
I0
tp694
a(I0
I1
tp695
a(I2
I2
tp696
a(I1
I1
tp697
a(I0
I3
tp698
a(I1
I1
tp699
a(I1
I0
tp700
a(I0
I3
tp701
a(I1
I2
tp702
a(I2
I2
tp703
asI100
(lp704
(I3
I0
tp705
a(I2
I0
tp706
a(I1
I1
tp707
a(I3
I1
tp708
a(I1
I1
tp709
a(I2
I1
tp710
a(I2
I0
tp711
a(I3
I0
tp712
a(I0
I1
tp713
a(I1
I1
tp714
a(I1
I0
tp715
a(I0
I0
tp716
a(I2
I0
tp717
a(I1
I0
tp718
a(I3
I1
tp719
a(I2
I1
tp720
a(I1
I1
tp721
a(I1
I2
tp722
a(I2
I1
tp723
a(I1
I2
tp724
a(I1
I0
tp725
a(I2
I1
tp726
a(I0
I2
tp727
a(I2
I1
tp728
a(I3
I0
tp729
a(I1
I0
tp730
a(I2
I4
tp731
a(I2
I0
tp732
a(I2
I0
tp733
a(I2
I0
tp734
a(I0
I2
tp735
a(I1
I0
tp736
a(I2
I4
tp737
a(I1
I2
tp738
asI6
(lp739
(I4
I1
tp740
a(I2
I5
tp741
a(I1
I2
tp742
a(I1
I1
tp743
a(I3
I1
tp744
a(I2
I1
tp745
a(I1
I2
tp746
a(I1
I1
tp747
a(I1
I3
tp748
a(I1
I1
tp749
a(I2
I2
tp750
a(I2
I1
tp751
a(I1
I1
tp752
a(I0
I1
tp753
a(I1
I2
tp754
a(I1
I1
tp755
a(I0
I0
tp756
a(I2
I1
tp757
a(I0
I1
tp758
a(I4
I0
tp759
a(I4
I7
tp760
a(I3
I2
tp761
a(I3
I0
tp762
a(I1
I1
tp763
a(I0
I1
tp764
a(I1
I2
tp765
a(I2
I0
tp766
a(I5
I1
tp767
a(I2
I1
tp768
a(I2
I1
tp769
a(I2
I0
tp770
a(I5
I1
tp771
a(I2
I2
tp772
a(I2
I2
tp773
asI134
(lp774
(I5
I2
tp775
a(I2
I0
tp776
a(I1
I1
tp777
a(I5
I1
tp778
a(I3
I2
tp779
a(I1
I2
tp780
a(I2
I1
tp781
a(I2
I1
tp782
a(I6
I2
tp783
a(I0
I0
tp784
a(I4
I1
tp785
a(I1
I3
tp786
a(I6
I1
tp787
a(I1
I2
tp788
a(I2
I0
tp789
a(I4
I1
tp790
a(I1
I1
tp791
a(I1
I0
tp792
a(I4
I2
tp793
a(I0
I0
tp794
a(I0
I2
tp795
a(I1
I0
tp796
a(I2
I0
tp797
a(I1
I1
tp798
a(I0
I3
tp799
a(I1
I3
tp800
a(I5
I0
tp801
a(I1
I0
tp802
a(I3
I0
tp803
a(I1
I1
tp804
a(I0
I0
tp805
a(I5
I3
tp806
a(I6
I0
tp807
a(I2
I1
tp808
asI7
(lp809
(I2
I2
tp810
a(I1
I2
tp811
a(I1
I1
tp812
a(I2
I1
tp813
a(I2
I3
tp814
a(I2
I0
tp815
a(I1
I1
tp816
a(I0
I0
tp817
a(I3
I3
tp818
a(I1
I1
tp819
a(I2
I1
tp820
a(I1
I2
tp821
a(I2
I0
tp822
a(I2
I1
tp823
a(I0
I2
tp824
a(I0
I2
tp825
a(I1
I2
tp826
a(I3
I2
tp827
a(I0
I0
tp828
a(I2
I0
tp829
a(I0
I0
tp830
a(I0
I1
tp831
a(I0
I1
tp832
a(I1
I1
tp833
a(I0
I0
tp834
a(I2
I1
tp835
a(I4
I2
tp836
a(I1
I2
tp837
a(I1
I2
tp838
a(I0
I0
tp839
a(I2
I1
tp840
a(I2
I1
tp841
a(I1
I1
tp842
a(I3
I3
tp843
asI40
(lp844
(I3
I0
tp845
a(I5
I2
tp846
a(I3
I0
tp847
a(I2
I1
tp848
a(I1
I0
tp849
a(I1
I0
tp850
a(I0
I2
tp851
a(I2
I0
tp852
a(I1
I1
tp853
a(I4
I0
tp854
a(I2
I1
tp855
a(I3
I1
tp856
a(I2
I1
tp857
a(I2
I1
tp858
a(I0
I0
tp859
a(I2
I1
tp860
a(I2
I1
tp861
a(I3
I1
tp862
a(I1
I0
tp863
a(I0
I0
tp864
a(I2
I1
tp865
a(I1
I1
tp866
a(I5
I2
tp867
a(I1
I2
tp868
a(I0
I0
tp869
a(I3
I0
tp870
a(I3
I1
tp871
a(I2
I2
tp872
a(I0
I3
tp873
a(I2
I0
tp874
a(I2
I2
tp875
a(I3
I1
tp876
a(I1
I1
tp877
a(I3
I3
tp878
asI9
(lp879
(I2
I1
tp880
a(I2
I1
tp881
a(I1
I1
tp882
a(I1
I1
tp883
a(I0
I0
tp884
a(I1
I1
tp885
a(I2
I0
tp886
a(I1
I0
tp887
a(I1
I1
tp888
a(I0
I0
tp889
a(I0
I1
tp890
a(I3
I0
tp891
a(I2
I2
tp892
a(I2
I1
tp893
a(I1
I0
tp894
a(I1
I0
tp895
a(I0
I2
tp896
a(I2
I0
tp897
a(I0
I0
tp898
a(I0
I0
tp899
a(I7
I4
tp900
a(I2
I1
tp901
a(I2
I0
tp902
a(I2
I1
tp903
a(I2
I0
tp904
a(I0
I3
tp905
a(I2
I2
tp906
a(I0
I2
tp907
a(I1
I1
tp908
a(I1
I1
tp909
a(I0
I0
tp910
a(I3
I1
tp911
a(I0
I1
tp912
a(I3
I2
tp913
asI107
(lp914
(I1
I1
tp915
a(I3
I5
tp916
a(I1
I1
tp917
a(I1
I2
tp918
a(I1
I3
tp919
a(I2
I3
tp920
a(I1
I0
tp921
a(I1
I1
tp922
a(I0
I1
tp923
a(I0
I4
tp924
a(I1
I0
tp925
a(I0
I3
tp926
a(I0
I2
tp927
a(I1
I1
tp928
a(I0
I2
tp929
a(I1
I1
tp930
a(I1
I1
tp931
a(I1
I0
tp932
a(I2
I2
tp933
a(I0
I2
tp934
a(I1
I1
tp935
a(I2
I3
tp936
a(I2
I1
tp937
a(I0
I3
tp938
a(I0
I0
tp939
a(I2
I5
tp940
a(I1
I3
tp941
a(I1
I1
tp942
a(I1
I1
tp943
a(I0
I2
tp944
a(I1
I3
tp945
a(I3
I5
tp946
a(I2
I0
tp947
a(I0
I0
tp948
asI76
(lp949
(I1
I2
tp950
a(I5
I3
tp951
a(I3
I2
tp952
a(I1
I5
tp953
a(I0
I0
tp954
a(I0
I2
tp955
a(I0
I1
tp956
a(I0
I3
tp957
a(I3
I3
tp958
a(I1
I4
tp959
a(I2
I2
tp960
a(I0
I3
tp961
a(I1
I3
tp962
a(I1
I5
tp963
a(I1
I2
tp964
a(I1
I2
tp965
a(I3
I2
tp966
a(I0
I2
tp967
a(I2
I2
tp968
a(I2
I2
tp969
a(I2
I0
tp970
a(I2
I0
tp971
a(I2
I0
tp972
a(I1
I1
tp973
a(I0
I3
tp974
a(I1
I2
tp975
a(I3
I0
tp976
a(I1
I5
tp977
a(I0
I2
tp978
a(I2
I3
tp979
a(I1
I0
tp980
a(I2
I2
tp981
a(I1
I1
tp982
a(I2
I2
tp983
asI79
(lp984
(I0
I3
tp985
a(I1
I1
tp986
a(I0
I1
tp987
a(I1
I2
tp988
a(I1
I1
tp989
a(I1
I1
tp990
a(I0
I1
tp991
a(I2
I1
tp992
a(I2
I6
tp993
a(I2
I3
tp994
a(I1
I4
tp995
a(I0
I1
tp996
a(I3
I1
tp997
a(I1
I2
tp998
a(I1
I0
tp999
a(I1
I1
tp1000
a(I1
I1
tp1001
a(I2
I1
tp1002
a(I1
I1
tp1003
a(I0
I1
tp1004
a(I1
I2
tp1005
a(I1
I0
tp1006
a(I0
I2
tp1007
a(I3
I0
tp1008
a(I4
I3
tp1009
a(I3
I1
tp1010
a(I0
I0
tp1011
a(I3
I0
tp1012
a(I0
I1
tp1013
a(I3
I2
tp1014
a(I1
I2
tp1015
a(I5
I2
tp1016
a(I2
I2
tp1017
a(I2
I1
tp1018
asI16
(lp1019
(I1
I1
tp1020
a(I2
I3
tp1021
a(I1
I1
tp1022
a(I1
I1
tp1023
a(I2
I1
tp1024
a(I1
I2
tp1025
a(I1
I0
tp1026
a(I0
I0
tp1027
a(I1
I1
tp1028
a(I1
I1
tp1029
a(I3
I3
tp1030
a(I1
I0
tp1031
a(I2
I2
tp1032
a(I1
I1
tp1033
a(I0
I0
tp1034
a(I1
I0
tp1035
a(I2
I0
tp1036
a(I0
I1
tp1037
a(I0
I0
tp1038
a(I0
I0
tp1039
a(I1
I2
tp1040
a(I2
I1
tp1041
a(I2
I0
tp1042
a(I1
I1
tp1043
a(I0
I0
tp1044
a(I1
I1
tp1045
a(I0
I2
tp1046
a(I0
I2
tp1047
a(I1
I0
tp1048
a(I3
I3
tp1049
a(I0
I2
tp1050
a(I1
I3
tp1051
a(I2
I1
tp1052
a(I2
I3
tp1053
asI81
(lp1054
(I0
I1
tp1055
a(I0
I2
tp1056
a(I0
I2
tp1057
a(I1
I3
tp1058
a(I1
I2
tp1059
a(I2
I0
tp1060
a(I1
I1
tp1061
a(I0
I1
tp1062
a(I3
I1
tp1063
a(I1
I3
tp1064
a(I4
I1
tp1065
a(I2
I2
tp1066
a(I2
I2
tp1067
a(I1
I2
tp1068
a(I5
I1
tp1069
a(I0
I1
tp1070
a(I1
I1
tp1071
a(I4
I2
tp1072
a(I2
I4
tp1073
a(I1
I1
tp1074
a(I0
I1
tp1075
a(I1
I2
tp1076
a(I0
I2
tp1077
a(I1
I1
tp1078
a(I3
I0
tp1079
a(I2
I1
tp1080
a(I2
I2
tp1081
a(I0
I3
tp1082
a(I0
I0
tp1083
a(I0
I0
tp1084
a(I2
I2
tp1085
a(I3
I0
tp1086
a(I1
I0
tp1087
a(I0
I0
tp1088
asI83
(lp1089
(I2
I5
tp1090
a(I0
I2
tp1091
a(I2
I0
tp1092
a(I1
I1
tp1093
a(I0
I0
tp1094
a(I0
I2
tp1095
a(I0
I2
tp1096
a(I1
I1
tp1097
a(I3
I0
tp1098
a(I3
I2
tp1099
a(I4
I1
tp1100
a(I0
I3
tp1101
a(I1
I2
tp1102
a(I0
I0
tp1103
a(I0
I1
tp1104
a(I1
I1
tp1105
a(I3
I2
tp1106
a(I0
I1
tp1107
a(I1
I2
tp1108
a(I1
I1
tp1109
a(I2
I1
tp1110
a(I0
I2
tp1111
a(I1
I0
tp1112
a(I0
I2
tp1113
a(I1
I0
tp1114
a(I0
I1
tp1115
a(I0
I0
tp1116
a(I1
I0
tp1117
a(I1
I0
tp1118
a(I0
I2
tp1119
a(I0
I1
tp1120
a(I1
I3
tp1121
a(I0
I2
tp1122
a(I2
I4
tp1123
asI54
(lp1124
(I2
I2
tp1125
a(I2
I0
tp1126
a(I0
I3
tp1127
a(I3
I0
tp1128
a(I0
I0
tp1129
a(I3
I2
tp1130
a(I1
I0
tp1131
a(I1
I2
tp1132
a(I0
I3
tp1133
a(I3
I1
tp1134
a(I3
I3
tp1135
a(I3
I0
tp1136
a(I0
I2
tp1137
a(I2
I2
tp1138
a(I2
I1
tp1139
a(I1
I2
tp1140
a(I1
I1
tp1141
a(I1
I1
tp1142
a(I1
I1
tp1143
a(I0
I0
tp1144
a(I1
I1
tp1145
a(I1
I2
tp1146
a(I1
I2
tp1147
a(I2
I4
tp1148
a(I3
I0
tp1149
a(I1
I0
tp1150
a(I2
I2
tp1151
a(I2
I0
tp1152
a(I2
I0
tp1153
a(I0
I0
tp1154
a(I2
I2
tp1155
a(I1
I5
tp1156
a(I4
I2
tp1157
a(I1
I2
tp1158
asI87
(lp1159
(I0
I3
tp1160
a(I1
I1
tp1161
a(I1
I1
tp1162
a(I2
I1
tp1163
a(I1
I2
tp1164
a(I2
I1
tp1165
a(I2
I0
tp1166
a(I1
I0
tp1167
a(I1
I1
tp1168
a(I4
I1
tp1169
a(I1
I2
tp1170
a(I0
I0
tp1171
a(I1
I1
tp1172
a(I2
I2
tp1173
a(I0
I1
tp1174
a(I1
I1
tp1175
a(I4
I3
tp1176
a(I1
I3
tp1177
a(I0
I2
tp1178
a(I0
I0
tp1179
a(I1
I1
tp1180
a(I2
I0
tp1181
a(I0
I2
tp1182
a(I2
I0
tp1183
a(I0
I3
tp1184
a(I1
I1
tp1185
a(I0
I3
tp1186
a(I2
I1
tp1187
a(I0
I2
tp1188
a(I1
I2
tp1189
a(I2
I2
tp1190
a(I2
I5
tp1191
a(I2
I2
tp1192
a(I2
I0
tp1193
asI55
(lp1194
(I2
I2
tp1195
a(I1
I1
tp1196
a(I1
I1
tp1197
a(I2
I0
tp1198
a(I0
I1
tp1199
a(I2
I4
tp1200
a(I0
I2
tp1201
a(I1
I1
tp1202
a(I4
I1
tp1203
a(I0
I0
tp1204
a(I1
I4
tp1205
a(I2
I2
tp1206
a(I2
I2
tp1207
a(I5
I1
tp1208
a(I2
I0
tp1209
a(I1
I1
tp1210
a(I0
I0
tp1211
a(I1
I1
tp1212
a(I1
I1
tp1213
a(I2
I1
tp1214
a(I1
I0
tp1215
a(I1
I1
tp1216
a(I1
I2
tp1217
a(I1
I2
tp1218
a(I0
I0
tp1219
a(I1
I0
tp1220
a(I0
I5
tp1221
a(I0
I1
tp1222
a(I0
I0
tp1223
a(I3
I3
tp1224
a(I0
I1
tp1225
a(I1
I2
tp1226
a(I2
I2
tp1227
a(I2
I2
tp1228
asI91
(lp1229
(I1
I4
tp1230
a(I0
I2
tp1231
a(I1
I0
tp1232
a(I0
I2
tp1233
a(I1
I1
tp1234
a(I0
I1
tp1235
a(I0
I1
tp1236
a(I0
I1
tp1237
a(I1
I0
tp1238
a(I6
I3
tp1239
a(I1
I4
tp1240
a(I3
I0
tp1241
a(I2
I2
tp1242
a(I1
I1
tp1243
a(I2
I1
tp1244
a(I2
I0
tp1245
a(I3
I4
tp1246
a(I1
I2
tp1247
a(I1
I1
tp1248
a(I1
I0
tp1249
a(I0
I1
tp1250
a(I1
I2
tp1251
a(I2
I5
tp1252
a(I1
I1
tp1253
a(I0
I2
tp1254
a(I5
I2
tp1255
a(I1
I1
tp1256
a(I0
I1
tp1257
a(I0
I1
tp1258
a(I0
I0
tp1259
a(I2
I0
tp1260
a(I2
I2
tp1261
a(I1
I1
tp1262
a(I0
I2
tp1263
assI2006
(dp1264
I129
(lp1265
(I1
I2
tp1266
a(I1
I2
tp1267
a(I0
I1
tp1268
a(I1
I1
tp1269
a(I2
I1
tp1270
a(I1
I2
tp1271
a(I0
I6
tp1272
a(I1
I1
tp1273
a(I0
I1
tp1274
a(I2
I0
tp1275
a(I1
I3
tp1276
a(I3
I3
tp1277
a(I4
I3
tp1278
a(I1
I2
tp1279
a(I2
I1
tp1280
a(I0
I1
tp1281
a(I2
I0
tp1282
a(I0
I1
tp1283
a(I0
I0
tp1284
a(I0
I0
tp1285
a(I0
I2
tp1286
a(I3
I1
tp1287
a(I2
I2
tp1288
a(I0
I3
tp1289
a(I2
I0
tp1290
a(I1
I3
tp1291
a(I2
I0
tp1292
a(I4
I1
tp1293
a(I1
I3
tp1294
a(I3
I0
tp1295
a(I2
I1
tp1296
a(I3
I0
tp1297
a(I2
I3
tp1298
a(I2
I0
tp1299
asI131
(lp1300
(I0
I0
tp1301
a(I0
I0
tp1302
a(I1
I1
tp1303
a(I1
I2
tp1304
a(I0
I2
tp1305
a(I1
I0
tp1306
a(I1
I3
tp1307
a(I1
I1
tp1308
a(I1
I0
tp1309
a(I1
I0
tp1310
a(I2
I1
tp1311
a(I0
I0
tp1312
a(I0
I0
tp1313
a(I1
I1
tp1314
a(I0
I1
tp1315
a(I1
I2
tp1316
a(I1
I2
tp1317
a(I1
I2
tp1318
a(I2
I2
tp1319
a(I3
I2
tp1320
a(I2
I2
tp1321
a(I2
I2
tp1322
a(I1
I2
tp1323
a(I1
I0
tp1324
a(I0
I0
tp1325
a(I3
I1
tp1326
a(I0
I1
tp1327
a(I3
I2
tp1328
a(I2
I3
tp1329
a(I2
I3
tp1330
a(I1
I1
tp1331
a(I0
I2
tp1332
a(I2
I2
tp1333
a(I0
I2
tp1334
asI100
(lp1335
(I1
I1
tp1336
a(I2
I2
tp1337
a(I1
I1
tp1338
a(I0
I1
tp1339
a(I1
I1
tp1340
a(I2
I2
tp1341
a(I1
I2
tp1342
a(I2
I1
tp1343
a(I0
I0
tp1344
a(I0
I1
tp1345
a(I0
I2
tp1346
a(I1
I1
tp1347
a(I0
I0
tp1348
a(I1
I2
tp1349
a(I1
I2
tp1350
a(I0
I0
tp1351
a(I3
I3
tp1352
a(I1
I1
tp1353
a(I1
I1
tp1354
a(I1
I2
tp1355
a(I3
I0
tp1356
a(I2
I0
tp1357
a(I3
I1
tp1358
a(I2
I0
tp1359
a(I0
I0
tp1360
a(I0
I0
tp1361
a(I1
I0
tp1362
a(I2
I4
tp1363
a(I1
I0
tp1364
a(I2
I2
tp1365
a(I2
I1
tp1366
a(I0
I3
tp1367
a(I2
I0
tp1368
a(I4
I0
tp1369
asI134
(lp1370
(I4
I2
tp1371
a(I2
I1
tp1372
a(I0
I2
tp1373
a(I2
I3
tp1374
a(I1
I1
tp1375
a(I3
I0
tp1376
a(I6
I0
tp1377
a(I3
I1
tp1378
a(I6
I1
tp1379
a(I1
I1
tp1380
a(I2
I1
tp1381
a(I1
I3
tp1382
a(I2
I2
tp1383
a(I3
I0
tp1384
a(I3
I1
tp1385
a(I6
I2
tp1386
a(I2
I1
tp1387
a(I3
I0
tp1388
a(I2
I0
tp1389
a(I0
I2
tp1390
a(I1
I4
tp1391
a(I0
I2
tp1392
a(I2
I2
tp1393
a(I3
I0
tp1394
a(I1
I1
tp1395
a(I2
I0
tp1396
a(I0
I0
tp1397
a(I1
I0
tp1398
a(I2
I0
tp1399
a(I3
I1
tp1400
a(I2
I3
tp1401
a(I4
I1
tp1402
a(I1
I2
tp1403
a(I2
I0
tp1404
asI6
(lp1405
(I3
I0
tp1406
a(I1
I2
tp1407
a(I1
I1
tp1408
a(I1
I3
tp1409
a(I1
I1
tp1410
a(I3
I1
tp1411
a(I0
I3
tp1412
a(I1
I2
tp1413
a(I2
I0
tp1414
a(I1
I1
tp1415
a(I3
I1
tp1416
a(I2
I3
tp1417
a(I2
I3
tp1418
a(I3
I1
tp1419
a(I0
I0
tp1420
a(I2
I1
tp1421
a(I2
I1
tp1422
a(I3
I2
tp1423
a(I0
I2
tp1424
a(I2
I3
tp1425
a(I2
I2
tp1426
a(I0
I1
tp1427
a(I1
I0
tp1428
a(I3
I1
tp1429
a(I0
I0
tp1430
a(I1
I0
tp1431
a(I3
I1
tp1432
a(I1
I4
tp1433
a(I1
I2
tp1434
a(I2
I0
tp1435
a(I1
I2
tp1436
a(I1
I2
tp1437
a(I3
I2
tp1438
a(I2
I1
tp1439
asI7
(lp1440
(I0
I2
tp1441
a(I1
I1
tp1442
a(I3
I1
tp1443
a(I1
I0
tp1444
a(I0
I1
tp1445
a(I2
I2
tp1446
a(I3
I2
tp1447
a(I1
I1
tp1448
a(I1
I1
tp1449
a(I1
I1
tp1450
a(I0
I0
tp1451
a(I3
I1
tp1452
a(I1
I2
tp1453
a(I1
I1
tp1454
a(I1
I0
tp1455
a(I1
I3
tp1456
a(I1
I2
tp1457
a(I3
I2
tp1458
a(I0
I1
tp1459
a(I0
I1
tp1460
a(I0
I3
tp1461
a(I1
I0
tp1462
a(I2
I4
tp1463
a(I2
I3
tp1464
a(I0
I2
tp1465
a(I0
I0
tp1466
a(I0
I1
tp1467
a(I4
I1
tp1468
a(I0
I2
tp1469
a(I1
I0
tp1470
a(I2
I0
tp1471
a(I2
I0
tp1472
a(I2
I0
tp1473
a(I1
I2
tp1474
asI40
(lp1475
(I2
I0
tp1476
a(I2
I1
tp1477
a(I0
I0
tp1478
a(I1
I2
tp1479
a(I2
I1
tp1480
a(I0
I1
tp1481
a(I4
I2
tp1482
a(I1
I3
tp1483
a(I2
I0
tp1484
a(I2
I2
tp1485
a(I0
I1
tp1486
a(I3
I2
tp1487
a(I2
I1
tp1488
a(I2
I1
tp1489
a(I1
I1
tp1490
a(I2
I1
tp1491
a(I4
I0
tp1492
a(I2
I3
tp1493
a(I0
I0
tp1494
a(I0
I3
tp1495
a(I1
I0
tp1496
a(I0
I1
tp1497
a(I2
I1
tp1498
a(I3
I2
tp1499
a(I1
I1
tp1500
a(I0
I1
tp1501
a(I2
I0
tp1502
a(I2
I1
tp1503
a(I2
I1
tp1504
a(I0
I2
tp1505
a(I1
I2
tp1506
a(I1
I1
tp1507
a(I3
I0
tp1508
a(I5
I2
tp1509
asI9
(lp1510
(I1
I1
tp1511
a(I1
I0
tp1512
a(I2
I0
tp1513
a(I0
I2
tp1514
a(I2
I0
tp1515
a(I1
I3
tp1516
a(I2
I1
tp1517
a(I2
I1
tp1518
a(I0
I3
tp1519
a(I2
I2
tp1520
a(I2
I0
tp1521
a(I4
I0
tp1522
a(I4
I2
tp1523
a(I2
I1
tp1524
a(I0
I0
tp1525
a(I3
I1
tp1526
a(I1
I0
tp1527
a(I3
I1
tp1528
a(I2
I1
tp1529
a(I2
I0
tp1530
a(I2
I0
tp1531
a(I2
I2
tp1532
a(I0
I1
tp1533
a(I0
I2
tp1534
a(I1
I1
tp1535
a(I1
I0
tp1536
a(I0
I2
tp1537
a(I2
I0
tp1538
a(I3
I0
tp1539
a(I2
I0
tp1540
a(I1
I2
tp1541
a(I1
I0
tp1542
a(I0
I2
tp1543
a(I2
I1
tp1544
asI87
(lp1545
(I2
I0
tp1546
a(I0
I1
tp1547
a(I1
I0
tp1548
a(I2
I4
tp1549
a(I1
I0
tp1550
a(I0
I3
tp1551
a(I3
I1
tp1552
a(I1
I2
tp1553
a(I0
I2
tp1554
a(I0
I1
tp1555
a(I0
I2
tp1556
a(I1
I1
tp1557
a(I0
I1
tp1558
a(I0
I1
tp1559
a(I1
I1
tp1560
a(I1
I1
tp1561
a(I0
I2
tp1562
a(I1
I3
tp1563
a(I0
I0
tp1564
a(I2
I0
tp1565
a(I0
I0
tp1566
a(I0
I1
tp1567
a(I2
I2
tp1568
a(I0
I1
tp1569
a(I3
I1
tp1570
a(I0
I1
tp1571
a(I1
I1
tp1572
a(I0
I2
tp1573
a(I0
I1
tp1574
a(I0
I1
tp1575
a(I0
I1
tp1576
a(I1
I1
tp1577
a(I0
I3
tp1578
a(I0
I2
tp1579
asI79
(lp1580
(I3
I0
tp1581
a(I1
I0
tp1582
a(I0
I0
tp1583
a(I1
I1
tp1584
a(I1
I1
tp1585
a(I1
I1
tp1586
a(I1
I1
tp1587
a(I2
I2
tp1588
a(I1
I1
tp1589
a(I1
I2
tp1590
a(I1
I2
tp1591
a(I1
I1
tp1592
a(I3
I2
tp1593
a(I1
I1
tp1594
a(I0
I0
tp1595
a(I0
I0
tp1596
a(I3
I1
tp1597
a(I4
I1
tp1598
a(I0
I0
tp1599
a(I3
I0
tp1600
a(I2
I0
tp1601
a(I1
I0
tp1602
a(I1
I2
tp1603
a(I2
I3
tp1604
a(I2
I2
tp1605
a(I0
I0
tp1606
a(I2
I1
tp1607
a(I0
I1
tp1608
a(I1
I0
tp1609
a(I0
I2
tp1610
a(I1
I1
tp1611
a(I0
I1
tp1612
a(I0
I2
tp1613
a(I3
I0
tp1614
asI16
(lp1615
(I0
I3
tp1616
a(I3
I2
tp1617
a(I1
I3
tp1618
a(I3
I2
tp1619
a(I1
I1
tp1620
a(I2
I2
tp1621
a(I3
I0
tp1622
a(I1
I1
tp1623
a(I3
I0
tp1624
a(I4
I2
tp1625
a(I2
I0
tp1626
a(I2
I1
tp1627
a(I1
I2
tp1628
a(I1
I0
tp1629
a(I0
I0
tp1630
a(I1
I0
tp1631
a(I0
I0
tp1632
a(I1
I4
tp1633
a(I3
I2
tp1634
a(I1
I0
tp1635
a(I4
I1
tp1636
a(I4
I0
tp1637
a(I0
I0
tp1638
a(I1
I3
tp1639
a(I0
I0
tp1640
a(I0
I1
tp1641
a(I3
I1
tp1642
a(I4
I2
tp1643
a(I2
I1
tp1644
a(I2
I0
tp1645
a(I1
I0
tp1646
a(I2
I0
tp1647
a(I3
I2
tp1648
a(I2
I1
tp1649
asI81
(lp1650
(I2
I1
tp1651
a(I1
I1
tp1652
a(I1
I1
tp1653
a(I0
I2
tp1654
a(I1
I1
tp1655
a(I1
I1
tp1656
a(I1
I3
tp1657
a(I0
I1
tp1658
a(I1
I6
tp1659
a(I1
I1
tp1660
a(I1
I2
tp1661
a(I0
I4
tp1662
a(I0
I0
tp1663
a(I0
I1
tp1664
a(I0
I0
tp1665
a(I1
I1
tp1666
a(I0
I4
tp1667
a(I1
I0
tp1668
a(I1
I0
tp1669
a(I0
I0
tp1670
a(I4
I1
tp1671
a(I2
I1
tp1672
a(I2
I1
tp1673
a(I1
I2
tp1674
a(I1
I0
tp1675
a(I0
I2
tp1676
a(I1
I3
tp1677
a(I2
I3
tp1678
a(I0
I3
tp1679
a(I2
I2
tp1680
a(I1
I2
tp1681
a(I0
I2
tp1682
a(I3
I0
tp1683
a(I2
I5
tp1684
asI83
(lp1685
(I1
I1
tp1686
a(I2
I3
tp1687
a(I0
I1
tp1688
a(I2
I1
tp1689
a(I1
I2
tp1690
a(I3
I1
tp1691
a(I1
I1
tp1692
a(I1
I0
tp1693
a(I5
I1
tp1694
a(I1
I1
tp1695
a(I2
I2
tp1696
a(I3
I0
tp1697
a(I0
I0
tp1698
a(I0
I3
tp1699
a(I0
I0
tp1700
a(I1
I1
tp1701
a(I0
I1
tp1702
a(I1
I1
tp1703
a(I2
I3
tp1704
a(I0
I2
tp1705
a(I0
I1
tp1706
a(I1
I3
tp1707
a(I1
I2
tp1708
a(I3
I2
tp1709
a(I0
I1
tp1710
a(I0
I2
tp1711
a(I1
I0
tp1712
a(I1
I1
tp1713
a(I2
I4
tp1714
a(I3
I2
tp1715
a(I3
I2
tp1716
a(I2
I1
tp1717
a(I3
I1
tp1718
a(I1
I2
tp1719
asI54
(lp1720
(I0
I0
tp1721
a(I4
I0
tp1722
a(I1
I1
tp1723
a(I2
I0
tp1724
a(I1
I1
tp1725
a(I2
I2
tp1726
a(I2
I4
tp1727
a(I2
I1
tp1728
a(I0
I2
tp1729
a(I2
I1
tp1730
a(I2
I2
tp1731
a(I3
I3
tp1732
a(I2
I1
tp1733
a(I2
I1
tp1734
a(I1
I3
tp1735
a(I1
I2
tp1736
a(I1
I0
tp1737
a(I2
I1
tp1738
a(I0
I5
tp1739
a(I2
I1
tp1740
a(I0
I2
tp1741
a(I1
I2
tp1742
a(I0
I0
tp1743
a(I2
I3
tp1744
a(I1
I3
tp1745
a(I0
I1
tp1746
a(I1
I2
tp1747
a(I1
I1
tp1748
a(I3
I1
tp1749
a(I0
I1
tp1750
a(I4
I0
tp1751
a(I1
I4
tp1752
a(I2
I3
tp1753
a(I2
I1
tp1754
asI23
(lp1755
(I0
I3
tp1756
a(I0
I1
tp1757
a(I3
I0
tp1758
a(I4
I2
tp1759
a(I1
I2
tp1760
a(I2
I1
tp1761
a(I3
I1
tp1762
a(I1
I2
tp1763
a(I1
I5
tp1764
a(I2
I4
tp1765
a(I0
I0
tp1766
a(I1
I1
tp1767
a(I2
I2
tp1768
a(I1
I2
tp1769
a(I2
I3
tp1770
a(I2
I1
tp1771
a(I3
I3
tp1772
a(I2
I3
tp1773
a(I1
I2
tp1774
a(I1
I4
tp1775
a(I0
I0
tp1776
a(I1
I0
tp1777
a(I2
I2
tp1778
a(I2
I1
tp1779
a(I2
I0
tp1780
a(I2
I0
tp1781
a(I1
I3
tp1782
a(I1
I4
tp1783
a(I0
I1
tp1784
a(I1
I3
tp1785
a(I0
I4
tp1786
a(I0
I4
tp1787
a(I2
I2
tp1788
a(I0
I4
tp1789
asI55
(lp1790
(I2
I4
tp1791
a(I0
I4
tp1792
a(I0
I3
tp1793
a(I2
I1
tp1794
a(I1
I1
tp1795
a(I2
I2
tp1796
a(I1
I1
tp1797
a(I1
I2
tp1798
a(I0
I0
tp1799
a(I0
I2
tp1800
a(I1
I0
tp1801
a(I1
I2
tp1802
a(I1
I0
tp1803
a(I1
I0
tp1804
a(I1
I0
tp1805
a(I1
I1
tp1806
a(I1
I3
tp1807
a(I0
I3
tp1808
a(I5
I0
tp1809
a(I4
I1
tp1810
a(I2
I2
tp1811
a(I1
I0
tp1812
a(I4
I2
tp1813
a(I0
I2
tp1814
a(I1
I1
tp1815
a(I0
I0
tp1816
a(I0
I2
tp1817
a(I1
I2
tp1818
a(I1
I2
tp1819
a(I1
I0
tp1820
a(I2
I1
tp1821
a(I2
I0
tp1822
a(I1
I3
tp1823
a(I0
I3
tp1824
asI91
(lp1825
(I1
I1
tp1826
a(I0
I0
tp1827
a(I1
I1
tp1828
a(I3
I1
tp1829
a(I1
I1
tp1830
a(I2
I2
tp1831
a(I1
I1
tp1832
a(I2
I2
tp1833
a(I0
I2
tp1834
a(I1
I0
tp1835
a(I1
I0
tp1836
a(I0
I3
tp1837
a(I3
I4
tp1838
a(I1
I1
tp1839
a(I3
I2
tp1840
a(I2
I6
tp1841
a(I0
I1
tp1842
a(I1
I3
tp1843
a(I2
I2
tp1844
a(I0
I0
tp1845
a(I2
I2
tp1846
a(I0
I4
tp1847
a(I1
I3
tp1848
a(I2
I0
tp1849
a(I2
I2
tp1850
a(I1
I0
tp1851
a(I1
I1
tp1852
a(I1
I3
tp1853
a(I4
I2
tp1854
a(I0
I3
tp1855
a(I0
I2
tp1856
a(I4
I0
tp1857
a(I2
I1
tp1858
a(I1
I2
tp1859
asI93
(lp1860
(I0
I2
tp1861
a(I2
I2
tp1862
a(I1
I0
tp1863
a(I2
I0
tp1864
a(I1
I1
tp1865
a(I1
I3
tp1866
a(I2
I3
tp1867
a(I2
I1
tp1868
a(I2
I0
tp1869
a(I1
I1
tp1870
a(I0
I1
tp1871
a(I0
I0
tp1872
a(I2
I4
tp1873
a(I1
I3
tp1874
a(I0
I1
tp1875
a(I1
I2
tp1876
a(I0
I0
tp1877
a(I3
I1
tp1878
a(I1
I1
tp1879
a(I0
I0
tp1880
a(I1
I4
tp1881
a(I0
I1
tp1882
a(I2
I1
tp1883
a(I3
I2
tp1884
a(I0
I2
tp1885
a(I1
I0
tp1886
a(I0
I0
tp1887
a(I3
I1
tp1888
a(I3
I2
tp1889
a(I0
I2
tp1890
a(I2
I1
tp1891
a(I0
I2
tp1892
a(I0
I3
tp1893
a(I1
I2
tp1894
assI2007
(dp1895
I129
(lp1896
(I2
I2
tp1897
a(I2
I1
tp1898
a(I2
I1
tp1899
a(I2
I3
tp1900
a(I0
I2
tp1901
a(I0
I0
tp1902
a(I0
I1
tp1903
a(I3
I3
tp1904
a(I1
I2
tp1905
a(I1
I2
tp1906
a(I0
I2
tp1907
a(I5
I3
tp1908
a(I2
I0
tp1909
a(I3
I0
tp1910
a(I0
I1
tp1911
a(I2
I2
tp1912
a(I0
I2
tp1913
a(I2
I1
tp1914
a(I3
I3
tp1915
a(I0
I3
tp1916
a(I2
I1
tp1917
a(I2
I0
tp1918
a(I1
I1
tp1919
a(I1
I1
tp1920
a(I1
I1
tp1921
a(I3
I3
tp1922
a(I1
I3
tp1923
a(I1
I1
tp1924
a(I1
I0
tp1925
a(I1
I1
tp1926
a(I0
I2
tp1927
a(I0
I3
tp1928
a(I3
I1
tp1929
a(I1
I2
tp1930
asI131
(lp1931
(I1
I3
tp1932
a(I3
I1
tp1933
a(I1
I1
tp1934
a(I1
I2
tp1935
a(I1
I2
tp1936
a(I2
I1
tp1937
a(I1
I1
tp1938
a(I2
I2
tp1939
a(I1
I0
tp1940
a(I2
I2
tp1941
a(I3
I1
tp1942
a(I3
I5
tp1943
a(I1
I2
tp1944
a(I1
I2
tp1945
a(I2
I2
tp1946
a(I1
I3
tp1947
a(I4
I0
tp1948
a(I1
I0
tp1949
a(I2
I1
tp1950
a(I2
I1
tp1951
a(I0
I0
tp1952
a(I1
I3
tp1953
a(I3
I0
tp1954
a(I1
I0
tp1955
a(I1
I1
tp1956
a(I1
I0
tp1957
a(I3
I2
tp1958
a(I0
I1
tp1959
a(I0
I1
tp1960
a(I2
I2
tp1961
a(I0
I0
tp1962
a(I3
I2
tp1963
a(I4
I0
tp1964
a(I4
I2
tp1965
asI100
(lp1966
(I1
I0
tp1967
a(I1
I0
tp1968
a(I1
I2
tp1969
a(I1
I1
tp1970
a(I1
I2
tp1971
a(I1
I0
tp1972
a(I3
I0
tp1973
a(I2
I2
tp1974
a(I1
I0
tp1975
a(I4
I1
tp1976
a(I1
I0
tp1977
a(I2
I1
tp1978
a(I1
I1
tp1979
a(I2
I0
tp1980
a(I1
I2
tp1981
a(I0
I0
tp1982
a(I1
I1
tp1983
a(I1
I1
tp1984
a(I1
I1
tp1985
a(I3
I0
tp1986
a(I1
I1
tp1987
a(I4
I1
tp1988
a(I0
I0
tp1989
a(I1
I0
tp1990
a(I1
I1
tp1991
a(I1
I1
tp1992
a(I0
I1
tp1993
a(I0
I1
tp1994
a(I0
I0
tp1995
a(I0
I1
tp1996
a(I3
I1
tp1997
a(I0
I1
tp1998
a(I0
I2
tp1999
a(I7
I0
tp2000
asI102
(lp2001
(I0
I3
tp2002
a(I1
I2
tp2003
a(I0
I1
tp2004
a(I0
I1
tp2005
a(I2
I4
tp2006
a(I2
I0
tp2007
a(I3
I1
tp2008
a(I2
I1
tp2009
a(I0
I1
tp2010
a(I1
I1
tp2011
a(I0
I0
tp2012
a(I0
I1
tp2013
a(I3
I2
tp2014
a(I0
I2
tp2015
a(I0
I3
tp2016
a(I0
I3
tp2017
a(I2
I0
tp2018
a(I1
I2
tp2019
a(I1
I1
tp2020
a(I1
I0
tp2021
a(I0
I1
tp2022
a(I1
I1
tp2023
a(I1
I1
tp2024
a(I0
I0
tp2025
a(I1
I4
tp2026
a(I0
I1
tp2027
a(I0
I1
tp2028
a(I2
I1
tp2029
a(I1
I2
tp2030
a(I1
I2
tp2031
a(I1
I3
tp2032
a(I0
I3
tp2033
a(I1
I2
tp2034
a(I2
I1
tp2035
asI6
(lp2036
(I0
I0
tp2037
a(I0
I1
tp2038
a(I3
I0
tp2039
a(I1
I1
tp2040
a(I2
I0
tp2041
a(I3
I0
tp2042
a(I2
I1
tp2043
a(I0
I1
tp2044
a(I1
I2
tp2045
a(I2
I2
tp2046
a(I0
I1
tp2047
a(I4
I0
tp2048
a(I2
I1
tp2049
a(I4
I1
tp2050
a(I3
I0
tp2051
a(I3
I0
tp2052
a(I2
I5
tp2053
a(I3
I2
tp2054
a(I1
I1
tp2055
a(I2
I2
tp2056
a(I1
I0
tp2057
a(I0
I2
tp2058
a(I2
I0
tp2059
a(I4
I1
tp2060
a(I1
I2
tp2061
a(I0
I2
tp2062
a(I1
I2
tp2063
a(I3
I0
tp2064
a(I0
I1
tp2065
a(I2
I2
tp2066
a(I2
I3
tp2067
a(I1
I2
tp2068
a(I2
I1
tp2069
a(I0
I1
tp2070
asI7
(lp2071
(I1
I3
tp2072
a(I1
I4
tp2073
a(I3
I0
tp2074
a(I1
I0
tp2075
a(I3
I0
tp2076
a(I2
I3
tp2077
a(I0
I3
tp2078
a(I1
I3
tp2079
a(I2
I1
tp2080
a(I2
I2
tp2081
a(I0
I0
tp2082
a(I1
I2
tp2083
a(I1
I1
tp2084
a(I0
I2
tp2085
a(I2
I1
tp2086
a(I6
I1
tp2087
a(I0
I4
tp2088
a(I3
I3
tp2089
a(I2
I3
tp2090
a(I2
I0
tp2091
a(I1
I0
tp2092
a(I0
I2
tp2093
a(I1
I1
tp2094
a(I0
I1
tp2095
a(I1
I1
tp2096
a(I3
I3
tp2097
a(I2
I1
tp2098
a(I0
I5
tp2099
a(I1
I3
tp2100
a(I1
I1
tp2101
a(I0
I0
tp2102
a(I3
I2
tp2103
a(I2
I2
tp2104
a(I2
I4
tp2105
asI40
(lp2106
(I3
I0
tp2107
a(I4
I0
tp2108
a(I3
I0
tp2109
a(I1
I1
tp2110
a(I1
I1
tp2111
a(I4
I1
tp2112
a(I5
I0
tp2113
a(I1
I0
tp2114
a(I3
I0
tp2115
a(I2
I1
tp2116
a(I0
I0
tp2117
a(I0
I0
tp2118
a(I1
I3
tp2119
a(I2
I1
tp2120
a(I1
I0
tp2121
a(I0
I0
tp2122
a(I0
I0
tp2123
a(I2
I1
tp2124
a(I1
I1
tp2125
a(I3
I0
tp2126
a(I1
I1
tp2127
a(I1
I0
tp2128
a(I2
I0
tp2129
a(I0
I2
tp2130
a(I2
I1
tp2131
a(I1
I1
tp2132
a(I3
I1
tp2133
a(I5
I0
tp2134
a(I3
I1
tp2135
a(I4
I1
tp2136
a(I0
I0
tp2137
a(I2
I0
tp2138
a(I3
I2
tp2139
a(I4
I1
tp2140
asI9
(lp2141
(I2
I2
tp2142
a(I4
I1
tp2143
a(I1
I1
tp2144
a(I1
I1
tp2145
a(I1
I1
tp2146
a(I3
I0
tp2147
a(I2
I0
tp2148
a(I1
I0
tp2149
a(I0
I2
tp2150
a(I1
I1
tp2151
a(I1
I1
tp2152
a(I0
I1
tp2153
a(I1
I1
tp2154
a(I3
I2
tp2155
a(I1
I0
tp2156
a(I2
I2
tp2157
a(I2
I1
tp2158
a(I4
I1
tp2159
a(I3
I2
tp2160
a(I1
I2
tp2161
a(I0
I1
tp2162
a(I0
I1
tp2163
a(I2
I0
tp2164
a(I2
I1
tp2165
a(I2
I1
tp2166
a(I0
I0
tp2167
a(I1
I0
tp2168
a(I1
I5
tp2169
a(I5
I0
tp2170
a(I1
I0
tp2171
a(I1
I1
tp2172
a(I3
I0
tp2173
a(I1
I0
tp2174
a(I2
I0
tp2175
asI107
(lp2176
(I3
I1
tp2177
a(I1
I3
tp2178
a(I0
I1
tp2179
a(I3
I0
tp2180
a(I1
I2
tp2181
a(I0
I2
tp2182
a(I0
I2
tp2183
a(I1
I2
tp2184
a(I1
I3
tp2185
a(I2
I1
tp2186
a(I0
I1
tp2187
a(I0
I1
tp2188
a(I0
I2
tp2189
a(I1
I4
tp2190
a(I1
I0
tp2191
a(I0
I0
tp2192
a(I0
I1
tp2193
a(I3
I3
tp2194
a(I1
I2
tp2195
a(I2
I3
tp2196
a(I2
I0
tp2197
a(I0
I2
tp2198
a(I1
I1
tp2199
a(I1
I2
tp2200
a(I1
I1
tp2201
a(I2
I1
tp2202
a(I0
I1
tp2203
a(I1
I0
tp2204
a(I0
I1
tp2205
a(I1
I1
tp2206
a(I3
I2
tp2207
a(I0
I2
tp2208
a(I2
I3
tp2209
a(I2
I4
tp2210
asI79
(lp2211
(I0
I2
tp2212
a(I2
I1
tp2213
a(I0
I1
tp2214
a(I1
I1
tp2215
a(I2
I2
tp2216
a(I0
I1
tp2217
a(I1
I2
tp2218
a(I3
I3
tp2219
a(I0
I3
tp2220
a(I5
I1
tp2221
a(I1
I3
tp2222
a(I0
I1
tp2223
a(I1
I3
tp2224
a(I2
I0
tp2225
a(I0
I1
tp2226
a(I2
I1
tp2227
a(I1
I2
tp2228
a(I0
I2
tp2229
a(I1
I1
tp2230
a(I0
I2
tp2231
a(I1
I1
tp2232
a(I1
I2
tp2233
a(I0
I0
tp2234
a(I1
I4
tp2235
a(I1
I1
tp2236
a(I1
I1
tp2237
a(I3
I1
tp2238
a(I1
I0
tp2239
a(I0
I3
tp2240
a(I2
I2
tp2241
a(I0
I0
tp2242
a(I2
I0
tp2243
a(I0
I1
tp2244
a(I0
I2
tp2245
asI16
(lp2246
(I2
I2
tp2247
a(I1
I3
tp2248
a(I1
I0
tp2249
a(I0
I1
tp2250
a(I3
I0
tp2251
a(I1
I4
tp2252
a(I1
I0
tp2253
a(I1
I2
tp2254
a(I0
I2
tp2255
a(I1
I4
tp2256
a(I1
I0
tp2257
a(I1
I0
tp2258
a(I3
I1
tp2259
a(I4
I1
tp2260
a(I1
I2
tp2261
a(I3
I1
tp2262
a(I0
I2
tp2263
a(I1
I4
tp2264
a(I1
I3
tp2265
a(I3
I2
tp2266
a(I3
I1
tp2267
a(I1
I0
tp2268
a(I6
I3
tp2269
a(I1
I1
tp2270
a(I4
I1
tp2271
a(I0
I0
tp2272
a(I1
I0
tp2273
a(I0
I3
tp2274
a(I3
I0
tp2275
a(I1
I4
tp2276
a(I4
I1
tp2277
a(I2
I3
tp2278
a(I0
I4
tp2279
a(I2
I2
tp2280
asI83
(lp2281
(I3
I1
tp2282
a(I2
I2
tp2283
a(I2
I0
tp2284
a(I0
I3
tp2285
a(I4
I2
tp2286
a(I0
I3
tp2287
a(I0
I2
tp2288
a(I1
I8
tp2289
a(I0
I1
tp2290
a(I0
I0
tp2291
a(I1
I1
tp2292
a(I0
I4
tp2293
a(I3
I1
tp2294
a(I0
I3
tp2295
a(I0
I1
tp2296
a(I1
I6
tp2297
a(I2
I0
tp2298
a(I0
I1
tp2299
a(I1
I2
tp2300
a(I0
I1
tp2301
a(I0
I2
tp2302
a(I1
I1
tp2303
a(I0
I2
tp2304
a(I2
I2
tp2305
a(I1
I1
tp2306
a(I1
I1
tp2307
a(I1
I0
tp2308
a(I0
I1
tp2309
a(I1
I0
tp2310
a(I2
I2
tp2311
a(I2
I0
tp2312
a(I0
I2
tp2313
a(I2
I2
tp2314
a(I2
I2
tp2315
asI105
(lp2316
(I2
I0
tp2317
a(I1
I2
tp2318
a(I0
I3
tp2319
a(I1
I0
tp2320
a(I2
I1
tp2321
a(I1
I4
tp2322
a(I1
I0
tp2323
a(I3
I1
tp2324
a(I2
I0
tp2325
a(I0
I0
tp2326
a(I0
I0
tp2327
a(I1
I0
tp2328
a(I0
I4
tp2329
a(I2
I1
tp2330
a(I0
I2
tp2331
a(I2
I2
tp2332
a(I1
I1
tp2333
a(I2
I0
tp2334
a(I2
I2
tp2335
a(I2
I2
tp2336
a(I1
I3
tp2337
a(I3
I1
tp2338
a(I0
I2
tp2339
a(I0
I1
tp2340
a(I1
I1
tp2341
a(I0
I0
tp2342
a(I0
I1
tp2343
a(I1
I2
tp2344
a(I1
I0
tp2345
a(I3
I3
tp2346
a(I1
I3
tp2347
a(I1
I1
tp2348
a(I1
I3
tp2349
a(I0
I7
tp2350
asI54
(lp2351
(I0
I1
tp2352
a(I3
I1
tp2353
a(I0
I2
tp2354
a(I2
I1
tp2355
a(I2
I1
tp2356
a(I3
I2
tp2357
a(I1
I3
tp2358
a(I0
I1
tp2359
a(I0
I0
tp2360
a(I2
I3
tp2361
a(I2
I0
tp2362
a(I1
I2
tp2363
a(I1
I0
tp2364
a(I1
I2
tp2365
a(I0
I3
tp2366
a(I1
I2
tp2367
a(I0
I0
tp2368
a(I0
I3
tp2369
a(I3
I1
tp2370
a(I1
I0
tp2371
a(I0
I0
tp2372
a(I2
I0
tp2373
a(I1
I1
tp2374
a(I0
I0
tp2375
a(I1
I2
tp2376
a(I1
I2
tp2377
a(I1
I2
tp2378
a(I1
I1
tp2379
a(I0
I0
tp2380
a(I2
I2
tp2381
a(I3
I1
tp2382
a(I2
I1
tp2383
a(I1
I0
tp2384
a(I1
I4
tp2385
asI55
(lp2386
(I0
I1
tp2387
a(I2
I1
tp2388
a(I0
I3
tp2389
a(I3
I2
tp2390
a(I2
I2
tp2391
a(I0
I3
tp2392
a(I2
I0
tp2393
a(I2
I1
tp2394
a(I2
I0
tp2395
a(I2
I2
tp2396
a(I0
I0
tp2397
a(I2
I1
tp2398
a(I0
I1
tp2399
a(I2
I3
tp2400
a(I3
I0
tp2401
a(I4
I3
tp2402
a(I1
I5
tp2403
a(I1
I1
tp2404
a(I2
I2
tp2405
a(I0
I3
tp2406
a(I1
I2
tp2407
a(I2
I1
tp2408
a(I0
I2
tp2409
a(I2
I2
tp2410
a(I1
I1
tp2411
a(I0
I0
tp2412
a(I2
I3
tp2413
a(I2
I1
tp2414
a(I3
I1
tp2415
a(I2
I2
tp2416
a(I1
I1
tp2417
a(I3
I0
tp2418
a(I1
I6
tp2419
a(I4
I0
tp2420
asI91
(lp2421
(I1
I0
tp2422
a(I2
I2
tp2423
a(I1
I0
tp2424
a(I1
I2
tp2425
a(I2
I1
tp2426
a(I0
I0
tp2427
a(I0
I1
tp2428
a(I2
I2
tp2429
a(I2
I1
tp2430
a(I1
I5
tp2431
a(I0
I0
tp2432
a(I0
I0
tp2433
a(I1
I1
tp2434
a(I1
I4
tp2435
a(I2
I2
tp2436
a(I2
I2
tp2437
a(I1
I0
tp2438
a(I3
I0
tp2439
a(I2
I1
tp2440
a(I0
I1
tp2441
a(I1
I0
tp2442
a(I1
I4
tp2443
a(I1
I1
tp2444
a(I1
I0
tp2445
a(I2
I1
tp2446
a(I2
I0
tp2447
a(I1
I3
tp2448
a(I1
I2
tp2449
a(I1
I3
tp2450
a(I1
I1
tp2451
a(I1
I4
tp2452
a(I2
I3
tp2453
a(I0
I1
tp2454
a(I4
I2
tp2455
asI93
(lp2456
(I0
I0
tp2457
a(I1
I2
tp2458
a(I0
I3
tp2459
a(I1
I1
tp2460
a(I0
I3
tp2461
a(I1
I2
tp2462
a(I0
I5
tp2463
a(I2
I2
tp2464
a(I0
I0
tp2465
a(I1
I2
tp2466
a(I1
I1
tp2467
a(I1
I0
tp2468
a(I2
I3
tp2469
a(I0
I2
tp2470
a(I2
I0
tp2471
a(I0
I0
tp2472
a(I5
I1
tp2473
a(I2
I3
tp2474
a(I3
I3
tp2475
a(I0
I2
tp2476
a(I1
I1
tp2477
a(I0
I1
tp2478
a(I0
I3
tp2479
a(I2
I0
tp2480
a(I1
I2
tp2481
a(I2
I1
tp2482
a(I1
I0
tp2483
a(I1
I0
tp2484
a(I0
I5
tp2485
a(I2
I1
tp2486
a(I0
I2
tp2487
a(I1
I1
tp2488
a(I2
I0
tp2489
a(I0
I4
tp2490
asI134
(lp2491
(I2
I2
tp2492
a(I0
I4
tp2493
a(I1
I0
tp2494
a(I2
I1
tp2495
a(I0
I3
tp2496
a(I4
I1
tp2497
a(I1
I1
tp2498
a(I8
I1
tp2499
a(I3
I1
tp2500
a(I3
I2
tp2501
a(I1
I1
tp2502
a(I1
I0
tp2503
a(I4
I0
tp2504
a(I2
I0
tp2505
a(I2
I1
tp2506
a(I3
I4
tp2507
a(I5
I2
tp2508
a(I1
I2
tp2509
a(I1
I1
tp2510
a(I2
I0
tp2511
a(I0
I1
tp2512
a(I2
I0
tp2513
a(I3
I6
tp2514
a(I0
I1
tp2515
a(I1
I1
tp2516
a(I1
I2
tp2517
a(I2
I1
tp2518
a(I5
I1
tp2519
a(I2
I1
tp2520
a(I3
I3
tp2521
a(I2
I0
tp2522
a(I1
I0
tp2523
a(I6
I1
tp2524
a(I1
I0
tp2525
assI2008
(dp2526
I65
(lp2527
(I1
I2
tp2528
a(I1
I1
tp2529
a(I2
I0
tp2530
a(I0
I3
tp2531
a(I0
I2
tp2532
a(I1
I0
tp2533
a(I2
I1
tp2534
a(I1
I0
tp2535
a(I0
I2
tp2536
a(I0
I1
tp2537
a(I3
I1
tp2538
a(I2
I1
tp2539
a(I1
I3
tp2540
a(I1
I3
tp2541
a(I1
I2
tp2542
a(I1
I2
tp2543
a(I2
I1
tp2544
a(I1
I1
tp2545
a(I2
I2
tp2546
a(I0
I0
tp2547
a(I2
I1
tp2548
a(I1
I1
tp2549
a(I0
I1
tp2550
a(I2
I4
tp2551
a(I2
I0
tp2552
a(I0
I2
tp2553
a(I1
I3
tp2554
a(I0
I3
tp2555
a(I1
I2
tp2556
a(I1
I0
tp2557
a(I0
I2
tp2558
a(I1
I2
tp2559
a(I1
I0
tp2560
a(I1
I1
tp2561
asI131
(lp2562
(I2
I1
tp2563
a(I2
I2
tp2564
a(I2
I2
tp2565
a(I2
I2
tp2566
a(I3
I0
tp2567
a(I1
I2
tp2568
a(I2
I2
tp2569
a(I4
I1
tp2570
a(I2
I4
tp2571
a(I3
I0
tp2572
a(I0
I2
tp2573
a(I3
I0
tp2574
a(I2
I3
tp2575
a(I4
I1
tp2576
a(I0
I0
tp2577
a(I2
I1
tp2578
a(I1
I2
tp2579
a(I1
I1
tp2580
a(I2
I0
tp2581
a(I2
I0
tp2582
a(I2
I1
tp2583
a(I3
I1
tp2584
a(I1
I0
tp2585
a(I4
I3
tp2586
a(I3
I0
tp2587
a(I5
I1
tp2588
a(I2
I1
tp2589
a(I2
I1
tp2590
a(I0
I2
tp2591
a(I4
I0
tp2592
a(I1
I4
tp2593
a(I3
I0
tp2594
a(I5
I0
tp2595
a(I5
I1
tp2596
asI100
(lp2597
(I2
I2
tp2598
a(I2
I1
tp2599
a(I4
I2
tp2600
a(I3
I2
tp2601
a(I0
I3
tp2602
a(I1
I0
tp2603
a(I2
I1
tp2604
a(I1
I1
tp2605
a(I0
I3
tp2606
a(I2
I0
tp2607
a(I0
I3
tp2608
a(I2
I1
tp2609
a(I1
I2
tp2610
a(I2
I1
tp2611
a(I1
I1
tp2612
a(I2
I1
tp2613
a(I1
I0
tp2614
a(I1
I0
tp2615
a(I2
I3
tp2616
a(I2
I0
tp2617
a(I2
I1
tp2618
a(I1
I3
tp2619
a(I1
I4
tp2620
a(I2
I0
tp2621
a(I2
I1
tp2622
a(I1
I0
tp2623
a(I0
I1
tp2624
a(I2
I1
tp2625
a(I0
I2
tp2626
a(I1
I1
tp2627
a(I0
I2
tp2628
a(I3
I1
tp2629
a(I0
I1
tp2630
a(I3
I2
tp2631
asI134
(lp2632
(I2
I2
tp2633
a(I1
I1
tp2634
a(I2
I3
tp2635
a(I3
I0
tp2636
a(I5
I2
tp2637
a(I5
I4
tp2638
a(I1
I4
tp2639
a(I3
I3
tp2640
a(I1
I1
tp2641
a(I0
I2
tp2642
a(I5
I1
tp2643
a(I0
I0
tp2644
a(I3
I1
tp2645
a(I1
I2
tp2646
a(I5
I0
tp2647
a(I0
I1
tp2648
a(I2
I1
tp2649
a(I1
I2
tp2650
a(I0
I1
tp2651
a(I1
I1
tp2652
a(I1
I2
tp2653
a(I0
I0
tp2654
a(I0
I0
tp2655
a(I4
I0
tp2656
a(I0
I1
tp2657
a(I4
I1
tp2658
a(I1
I1
tp2659
a(I1
I2
tp2660
a(I3
I2
tp2661
a(I0
I1
tp2662
a(I2
I0
tp2663
a(I5
I0
tp2664
a(I1
I3
tp2665
a(I1
I5
tp2666
asI6
(lp2667
(I2
I3
tp2668
a(I2
I0
tp2669
a(I5
I2
tp2670
a(I2
I3
tp2671
a(I4
I0
tp2672
a(I3
I2
tp2673
a(I0
I1
tp2674
a(I2
I0
tp2675
a(I2
I0
tp2676
a(I2
I0
tp2677
a(I2
I0
tp2678
a(I3
I3
tp2679
a(I2
I1
tp2680
a(I1
I2
tp2681
a(I0
I2
tp2682
a(I3
I1
tp2683
a(I1
I1
tp2684
a(I1
I1
tp2685
a(I2
I4
tp2686
a(I4
I1
tp2687
a(I1
I2
tp2688
a(I0
I1
tp2689
a(I1
I1
tp2690
a(I0
I1
tp2691
a(I1
I1
tp2692
a(I2
I0
tp2693
a(I1
I1
tp2694
a(I1
I2
tp2695
a(I0
I1
tp2696
a(I2
I1
tp2697
a(I2
I2
tp2698
a(I0
I3
tp2699
a(I5
I0
tp2700
a(I0
I3
tp2701
asI7
(lp2702
(I3
I2
tp2703
a(I1
I1
tp2704
a(I1
I0
tp2705
a(I3
I3
tp2706
a(I1
I4
tp2707
a(I3
I0
tp2708
a(I1
I1
tp2709
a(I3
I3
tp2710
a(I1
I1
tp2711
a(I1
I0
tp2712
a(I1
I1
tp2713
a(I1
I2
tp2714
a(I4
I0
tp2715
a(I1
I0
tp2716
a(I0
I0
tp2717
a(I0
I0
tp2718
a(I2
I1
tp2719
a(I1
I1
tp2720
a(I1
I3
tp2721
a(I1
I1
tp2722
a(I1
I1
tp2723
a(I0
I0
tp2724
a(I1
I2
tp2725
a(I4
I4
tp2726
a(I1
I0
tp2727
a(I3
I1
tp2728
a(I3
I1
tp2729
a(I2
I0
tp2730
a(I2
I0
tp2731
a(I2
I0
tp2732
a(I4
I0
tp2733
a(I0
I3
tp2734
a(I6
I0
tp2735
a(I1
I1
tp2736
asI40
(lp2737
(I2
I2
tp2738
a(I1
I1
tp2739
a(I4
I1
tp2740
a(I3
I0
tp2741
a(I2
I5
tp2742
a(I0
I1
tp2743
a(I3
I3
tp2744
a(I1
I0
tp2745
a(I4
I2
tp2746
a(I2
I1
tp2747
a(I3
I1
tp2748
a(I2
I1
tp2749
a(I2
I2
tp2750
a(I4
I1
tp2751
a(I2
I0
tp2752
a(I2
I1
tp2753
a(I2
I2
tp2754
a(I0
I1
tp2755
a(I3
I1
tp2756
a(I1
I2
tp2757
a(I1
I2
tp2758
a(I0
I0
tp2759
a(I5
I1
tp2760
a(I3
I0
tp2761
a(I1
I0
tp2762
a(I1
I5
tp2763
a(I4
I0
tp2764
a(I1
I0
tp2765
a(I0
I1
tp2766
a(I2
I1
tp2767
a(I3
I1
tp2768
a(I3
I0
tp2769
a(I2
I2
tp2770
a(I2
I1
tp2771
asI9
(lp2772
(I3
I0
tp2773
a(I1
I1
tp2774
a(I1
I0
tp2775
a(I3
I3
tp2776
a(I1
I0
tp2777
a(I0
I1
tp2778
a(I2
I2
tp2779
a(I1
I1
tp2780
a(I0
I0
tp2781
a(I3
I0
tp2782
a(I2
I0
tp2783
a(I1
I2
tp2784
a(I1
I2
tp2785
a(I3
I1
tp2786
a(I0
I2
tp2787
a(I1
I0
tp2788
a(I1
I1
tp2789
a(I0
I1
tp2790
a(I1
I0
tp2791
a(I1
I2
tp2792
a(I1
I1
tp2793
a(I2
I1
tp2794
a(I1
I0
tp2795
a(I3
I4
tp2796
a(I1
I2
tp2797
a(I2
I0
tp2798
a(I2
I0
tp2799
a(I4
I0
tp2800
a(I1
I0
tp2801
a(I1
I2
tp2802
a(I0
I1
tp2803
a(I1
I2
tp2804
a(I0
I0
tp2805
a(I2
I3
tp2806
asI87
(lp2807
(I1
I3
tp2808
a(I0
I1
tp2809
a(I3
I2
tp2810
a(I1
I5
tp2811
a(I0
I1
tp2812
a(I0
I1
tp2813
a(I1
I2
tp2814
a(I2
I2
tp2815
a(I1
I0
tp2816
a(I0
I3
tp2817
a(I1
I2
tp2818
a(I2
I0
tp2819
a(I2
I2
tp2820
a(I1
I3
tp2821
a(I1
I3
tp2822
a(I1
I3
tp2823
a(I1
I2
tp2824
a(I0
I2
tp2825
a(I1
I1
tp2826
a(I1
I1
tp2827
a(I3
I2
tp2828
a(I1
I2
tp2829
a(I4
I1
tp2830
a(I4
I2
tp2831
a(I0
I1
tp2832
a(I0
I0
tp2833
a(I1
I2
tp2834
a(I1
I4
tp2835
a(I1
I1
tp2836
a(I1
I2
tp2837
a(I1
I0
tp2838
a(I1
I0
tp2839
a(I0
I5
tp2840
a(I1
I1
tp2841
asI129
(lp2842
(I0
I1
tp2843
a(I2
I2
tp2844
a(I0
I1
tp2845
a(I2
I0
tp2846
a(I1
I1
tp2847
a(I2
I3
tp2848
a(I3
I3
tp2849
a(I2
I2
tp2850
a(I0
I2
tp2851
a(I1
I3
tp2852
a(I1
I1
tp2853
a(I0
I0
tp2854
a(I1
I1
tp2855
a(I2
I3
tp2856
a(I1
I1
tp2857
a(I0
I4
tp2858
a(I1
I2
tp2859
a(I2
I0
tp2860
a(I0
I2
tp2861
a(I2
I1
tp2862
a(I1
I1
tp2863
a(I3
I2
tp2864
a(I1
I1
tp2865
a(I0
I3
tp2866
a(I1
I0
tp2867
a(I1
I2
tp2868
a(I3
I0
tp2869
a(I0
I2
tp2870
a(I2
I3
tp2871
a(I0
I2
tp2872
a(I0
I2
tp2873
a(I1
I3
tp2874
a(I2
I0
tp2875
a(I1
I1
tp2876
asI16
(lp2877
(I3
I1
tp2878
a(I0
I2
tp2879
a(I2
I0
tp2880
a(I0
I0
tp2881
a(I3
I1
tp2882
a(I0
I3
tp2883
a(I4
I1
tp2884
a(I1
I2
tp2885
a(I2
I0
tp2886
a(I0
I2
tp2887
a(I1
I3
tp2888
a(I2
I2
tp2889
a(I0
I0
tp2890
a(I1
I4
tp2891
a(I2
I0
tp2892
a(I3
I0
tp2893
a(I2
I2
tp2894
a(I2
I0
tp2895
a(I4
I2
tp2896
a(I3
I3
tp2897
a(I3
I3
tp2898
a(I2
I0
tp2899
a(I2
I1
tp2900
a(I0
I4
tp2901
a(I2
I0
tp2902
a(I2
I1
tp2903
a(I1
I0
tp2904
a(I3
I0
tp2905
a(I2
I0
tp2906
a(I2
I2
tp2907
a(I4
I1
tp2908
a(I2
I1
tp2909
a(I2
I0
tp2910
a(I1
I2
tp2911
asI91
(lp2912
(I0
I2
tp2913
a(I1
I1
tp2914
a(I2
I2
tp2915
a(I2
I1
tp2916
a(I0
I1
tp2917
a(I1
I1
tp2918
a(I1
I2
tp2919
a(I0
I2
tp2920
a(I3
I2
tp2921
a(I1
I2
tp2922
a(I2
I1
tp2923
a(I2
I2
tp2924
a(I0
I4
tp2925
a(I4
I0
tp2926
a(I0
I5
tp2927
a(I4
I0
tp2928
a(I0
I1
tp2929
a(I1
I2
tp2930
a(I2
I2
tp2931
a(I0
I2
tp2932
a(I1
I0
tp2933
a(I1
I2
tp2934
a(I0
I0
tp2935
a(I1
I1
tp2936
a(I1
I1
tp2937
a(I2
I1
tp2938
a(I0
I4
tp2939
a(I4
I1
tp2940
a(I0
I2
tp2941
a(I0
I2
tp2942
a(I1
I1
tp2943
a(I0
I5
tp2944
a(I0
I2
tp2945
a(I2
I3
tp2946
asI83
(lp2947
(I2
I2
tp2948
a(I1
I1
tp2949
a(I2
I4
tp2950
a(I0
I2
tp2951
a(I2
I0
tp2952
a(I1
I1
tp2953
a(I1
I2
tp2954
a(I1
I4
tp2955
a(I0
I0
tp2956
a(I1
I1
tp2957
a(I1
I3
tp2958
a(I0
I2
tp2959
a(I0
I0
tp2960
a(I2
I1
tp2961
a(I0
I3
tp2962
a(I0
I0
tp2963
a(I1
I1
tp2964
a(I2
I1
tp2965
a(I1
I1
tp2966
a(I0
I2
tp2967
a(I1
I1
tp2968
a(I1
I1
tp2969
a(I0
I0
tp2970
a(I1
I0
tp2971
a(I0
I3
tp2972
a(I0
I2
tp2973
a(I1
I2
tp2974
a(I0
I1
tp2975
a(I1
I1
tp2976
a(I2
I2
tp2977
a(I2
I2
tp2978
a(I0
I2
tp2979
a(I0
I6
tp2980
a(I2
I2
tp2981
asI105
(lp2982
(I1
I0
tp2983
a(I1
I2
tp2984
a(I0
I2
tp2985
a(I1
I2
tp2986
a(I1
I3
tp2987
a(I2
I1
tp2988
a(I2
I1
tp2989
a(I0
I1
tp2990
a(I0
I1
tp2991
a(I0
I3
tp2992
a(I1
I4
tp2993
a(I3
I3
tp2994
a(I0
I1
tp2995
a(I0
I1
tp2996
a(I2
I3
tp2997
a(I1
I0
tp2998
a(I0
I4
tp2999
a(I0
I2
tp3000
a(I3
I2
tp3001
a(I0
I0
tp3002
a(I0
I1
tp3003
a(I0
I2
tp3004
a(I0
I1
tp3005
a(I0
I1
tp3006
a(I0
I1
tp3007
a(I0
I0
tp3008
a(I0
I2
tp3009
a(I2
I2
tp3010
a(I1
I0
tp3011
a(I0
I0
tp3012
a(I0
I4
tp3013
a(I2
I3
tp3014
a(I3
I1
tp3015
a(I4
I0
tp3016
asI54
(lp3017
(I2
I0
tp3018
a(I1
I1
tp3019
a(I1
I4
tp3020
a(I2
I2
tp3021
a(I1
I0
tp3022
a(I0
I1
tp3023
a(I1
I0
tp3024
a(I2
I1
tp3025
a(I1
I1
tp3026
a(I3
I0
tp3027
a(I1
I5
tp3028
a(I1
I0
tp3029
a(I2
I1
tp3030
a(I3
I2
tp3031
a(I2
I1
tp3032
a(I0
I1
tp3033
a(I4
I0
tp3034
a(I2
I1
tp3035
a(I1
I1
tp3036
a(I2
I1
tp3037
a(I1
I2
tp3038
a(I2
I1
tp3039
a(I3
I1
tp3040
a(I1
I0
tp3041
a(I0
I2
tp3042
a(I1
I3
tp3043
a(I0
I2
tp3044
a(I2
I1
tp3045
a(I1
I0
tp3046
a(I1
I1
tp3047
a(I2
I0
tp3048
a(I2
I1
tp3049
a(I0
I0
tp3050
a(I0
I4
tp3051
asI55
(lp3052
(I0
I3
tp3053
a(I0
I0
tp3054
a(I0
I2
tp3055
a(I5
I1
tp3056
a(I0
I4
tp3057
a(I1
I0
tp3058
a(I1
I1
tp3059
a(I2
I5
tp3060
a(I1
I1
tp3061
a(I0
I3
tp3062
a(I3
I0
tp3063
a(I1
I2
tp3064
a(I1
I1
tp3065
a(I0
I4
tp3066
a(I3
I2
tp3067
a(I1
I2
tp3068
a(I1
I1
tp3069
a(I1
I0
tp3070
a(I1
I3
tp3071
a(I3
I3
tp3072
a(I2
I3
tp3073
a(I1
I0
tp3074
a(I1
I5
tp3075
a(I4
I4
tp3076
a(I2
I2
tp3077
a(I1
I4
tp3078
a(I2
I0
tp3079
a(I1
I2
tp3080
a(I2
I1
tp3081
a(I2
I0
tp3082
a(I1
I1
tp3083
a(I3
I2
tp3084
a(I0
I5
tp3085
a(I2
I2
tp3086
asI123
(lp3087
(I3
I0
tp3088
a(I1
I0
tp3089
a(I2
I5
tp3090
a(I0
I0
tp3091
a(I4
I1
tp3092
a(I4
I5
tp3093
a(I2
I1
tp3094
a(I5
I2
tp3095
a(I3
I0
tp3096
a(I3
I1
tp3097
a(I4
I1
tp3098
a(I0
I1
tp3099
a(I3
I2
tp3100
a(I3
I1
tp3101
a(I3
I0
tp3102
a(I1
I2
tp3103
a(I1
I1
tp3104
a(I2
I0
tp3105
a(I1
I1
tp3106
a(I1
I4
tp3107
a(I3
I3
tp3108
a(I0
I0
tp3109
a(I0
I0
tp3110
a(I1
I1
tp3111
a(I2
I2
tp3112
a(I0
I1
tp3113
a(I0
I3
tp3114
a(I2
I2
tp3115
a(I0
I1
tp3116
a(I0
I4
tp3117
a(I2
I0
tp3118
a(I2
I0
tp3119
a(I2
I2
tp3120
a(I3
I2
tp3121
asI93
(lp3122
(I0
I3
tp3123
a(I0
I0
tp3124
a(I0
I1
tp3125
a(I0
I3
tp3126
a(I1
I1
tp3127
a(I1
I0
tp3128
a(I1
I2
tp3129
a(I0
I1
tp3130
a(I2
I3
tp3131
a(I1
I1
tp3132
a(I0
I2
tp3133
a(I0
I3
tp3134
a(I1
I0
tp3135
a(I1
I4
tp3136
a(I3
I1
tp3137
a(I0
I3
tp3138
a(I1
I1
tp3139
a(I0
I2
tp3140
a(I3
I1
tp3141
a(I1
I1
tp3142
a(I2
I1
tp3143
a(I2
I3
tp3144
a(I1
I3
tp3145
a(I0
I2
tp3146
a(I0
I2
tp3147
a(I1
I2
tp3148
a(I2
I1
tp3149
a(I0
I4
tp3150
a(I2
I0
tp3151
a(I0
I0
tp3152
a(I1
I3
tp3153
a(I0
I1
tp3154
a(I0
I2
tp3155
a(I3
I0
tp3156
assI2009
(dp3157
I65
(lp3158
(I0
I1
tp3159
a(I1
I3
tp3160
a(I0
I0
tp3161
a(I1
I3
tp3162
a(I1
I2
tp3163
a(I2
I0
tp3164
a(I0
I1
tp3165
a(I0
I0
tp3166
a(I1
I0
tp3167
a(I0
I0
tp3168
a(I0
I1
tp3169
a(I1
I0
tp3170
a(I0
I4
tp3171
a(I0
I0
tp3172
a(I0
I0
tp3173
a(I0
I0
tp3174
a(I3
I0
tp3175
a(I2
I3
tp3176
a(I3
I2
tp3177
a(I2
I1
tp3178
a(I3
I3
tp3179
a(I0
I2
tp3180
a(I1
I5
tp3181
a(I0
I0
tp3182
a(I1
I1
tp3183
a(I0
I1
tp3184
a(I1
I1
tp3185
a(I4
I1
tp3186
a(I0
I3
tp3187
a(I2
I0
tp3188
a(I2
I0
tp3189
a(I0
I1
tp3190
a(I2
I2
tp3191
a(I0
I1
tp3192
asI131
(lp3193
(I2
I0
tp3194
a(I3
I1
tp3195
a(I2
I4
tp3196
a(I0
I3
tp3197
a(I2
I3
tp3198
a(I2
I1
tp3199
a(I4
I2
tp3200
a(I1
I1
tp3201
a(I2
I1
tp3202
a(I0
I0
tp3203
a(I3
I3
tp3204
a(I2
I1
tp3205
a(I2
I3
tp3206
a(I2
I2
tp3207
a(I2
I2
tp3208
a(I1
I3
tp3209
a(I2
I2
tp3210
a(I1
I3
tp3211
a(I2
I3
tp3212
a(I1
I1
tp3213
a(I1
I3
tp3214
a(I1
I2
tp3215
a(I2
I1
tp3216
a(I1
I0
tp3217
a(I4
I1
tp3218
a(I4
I0
tp3219
a(I1
I5
tp3220
a(I2
I0
tp3221
a(I4
I0
tp3222
a(I2
I0
tp3223
a(I2
I4
tp3224
a(I0
I1
tp3225
a(I1
I1
tp3226
a(I3
I1
tp3227
asI112
(lp3228
(I1
I1
tp3229
a(I2
I4
tp3230
a(I0
I5
tp3231
a(I1
I0
tp3232
a(I0
I2
tp3233
a(I4
I0
tp3234
a(I3
I0
tp3235
a(I2
I5
tp3236
a(I1
I2
tp3237
a(I0
I3
tp3238
a(I0
I1
tp3239
a(I2
I1
tp3240
a(I0
I6
tp3241
a(I1
I0
tp3242
a(I2
I2
tp3243
a(I0
I0
tp3244
a(I0
I1
tp3245
a(I0
I2
tp3246
a(I0
I1
tp3247
a(I1
I3
tp3248
a(I0
I0
tp3249
a(I1
I2
tp3250
a(I0
I3
tp3251
a(I1
I1
tp3252
a(I1
I2
tp3253
a(I1
I2
tp3254
a(I1
I0
tp3255
a(I1
I1
tp3256
a(I1
I1
tp3257
a(I0
I4
tp3258
a(I2
I1
tp3259
a(I1
I0
tp3260
a(I2
I2
tp3261
a(I3
I1
tp3262
asI6
(lp3263
(I2
I2
tp3264
a(I1
I0
tp3265
a(I5
I0
tp3266
a(I2
I1
tp3267
a(I3
I2
tp3268
a(I0
I0
tp3269
a(I1
I0
tp3270
a(I4
I0
tp3271
a(I0
I0
tp3272
a(I1
I1
tp3273
a(I2
I2
tp3274
a(I4
I0
tp3275
a(I1
I1
tp3276
a(I4
I0
tp3277
a(I0
I0
tp3278
a(I2
I2
tp3279
a(I3
I2
tp3280
a(I4
I2
tp3281
a(I3
I0
tp3282
a(I3
I1
tp3283
a(I1
I1
tp3284
a(I2
I1
tp3285
a(I2
I2
tp3286
a(I0
I0
tp3287
a(I2
I3
tp3288
a(I4
I2
tp3289
a(I0
I3
tp3290
a(I0
I2
tp3291
a(I2
I3
tp3292
a(I1
I1
tp3293
a(I1
I2
tp3294
a(I3
I0
tp3295
a(I1
I1
tp3296
a(I1
I1
tp3297
asI134
(lp3298
(I2
I3
tp3299
a(I1
I1
tp3300
a(I3
I0
tp3301
a(I3
I2
tp3302
a(I0
I0
tp3303
a(I0
I0
tp3304
a(I3
I0
tp3305
a(I2
I0
tp3306
a(I2
I0
tp3307
a(I4
I1
tp3308
a(I2
I2
tp3309
a(I1
I1
tp3310
a(I6
I0
tp3311
a(I2
I2
tp3312
a(I0
I0
tp3313
a(I0
I2
tp3314
a(I1
I2
tp3315
a(I0
I1
tp3316
a(I2
I3
tp3317
a(I3
I4
tp3318
a(I2
I1
tp3319
a(I5
I1
tp3320
a(I2
I2
tp3321
a(I2
I1
tp3322
a(I2
I2
tp3323
a(I1
I0
tp3324
a(I3
I2
tp3325
a(I4
I2
tp3326
a(I1
I2
tp3327
a(I4
I0
tp3328
a(I4
I2
tp3329
a(I1
I0
tp3330
a(I2
I0
tp3331
a(I1
I1
tp3332
asI7
(lp3333
(I1
I0
tp3334
a(I1
I4
tp3335
a(I1
I1
tp3336
a(I1
I1
tp3337
a(I1
I5
tp3338
a(I1
I1
tp3339
a(I0
I1
tp3340
a(I1
I0
tp3341
a(I2
I0
tp3342
a(I1
I1
tp3343
a(I2
I0
tp3344
a(I1
I1
tp3345
a(I0
I0
tp3346
a(I2
I1
tp3347
a(I4
I0
tp3348
a(I3
I1
tp3349
a(I1
I0
tp3350
a(I3
I2
tp3351
a(I1
I0
tp3352
a(I1
I4
tp3353
a(I2
I3
tp3354
a(I1
I3
tp3355
a(I4
I1
tp3356
a(I1
I2
tp3357
a(I3
I0
tp3358
a(I4
I1
tp3359
a(I3
I0
tp3360
a(I0
I0
tp3361
a(I2
I1
tp3362
a(I0
I1
tp3363
a(I1
I1
tp3364
a(I3
I2
tp3365
a(I1
I1
tp3366
a(I1
I3
tp3367
asI40
(lp3368
(I1
I1
tp3369
a(I1
I1
tp3370
a(I1
I2
tp3371
a(I3
I0
tp3372
a(I5
I1
tp3373
a(I2
I1
tp3374
a(I0
I1
tp3375
a(I0
I0
tp3376
a(I2
I1
tp3377
a(I2
I1
tp3378
a(I0
I0
tp3379
a(I1
I1
tp3380
a(I1
I1
tp3381
a(I3
I0
tp3382
a(I2
I1
tp3383
a(I5
I1
tp3384
a(I5
I2
tp3385
a(I2
I0
tp3386
a(I3
I2
tp3387
a(I3
I0
tp3388
a(I3
I1
tp3389
a(I3
I1
tp3390
a(I1
I1
tp3391
a(I1
I0
tp3392
a(I1
I1
tp3393
a(I2
I1
tp3394
a(I1
I2
tp3395
a(I1
I2
tp3396
a(I2
I1
tp3397
a(I1
I1
tp3398
a(I7
I0
tp3399
a(I1
I1
tp3400
a(I3
I1
tp3401
a(I3
I1
tp3402
asI9
(lp3403
(I2
I1
tp3404
a(I3
I0
tp3405
a(I0
I0
tp3406
a(I0
I1
tp3407
a(I2
I1
tp3408
a(I1
I2
tp3409
a(I1
I0
tp3410
a(I2
I0
tp3411
a(I2
I1
tp3412
a(I3
I3
tp3413
a(I2
I2
tp3414
a(I1
I1
tp3415
a(I2
I0
tp3416
a(I0
I1
tp3417
a(I2
I0
tp3418
a(I2
I0
tp3419
a(I1
I0
tp3420
a(I1
I0
tp3421
a(I2
I2
tp3422
a(I2
I0
tp3423
a(I0
I0
tp3424
a(I2
I0
tp3425
a(I1
I2
tp3426
a(I2
I1
tp3427
a(I4
I1
tp3428
a(I2
I1
tp3429
a(I2
I2
tp3430
a(I2
I0
tp3431
a(I1
I2
tp3432
a(I2
I4
tp3433
a(I3
I1
tp3434
a(I1
I0
tp3435
a(I0
I2
tp3436
a(I0
I0
tp3437
asI87
(lp3438
(I3
I3
tp3439
a(I2
I1
tp3440
a(I0
I3
tp3441
a(I2
I0
tp3442
a(I0
I1
tp3443
a(I2
I4
tp3444
a(I0
I3
tp3445
a(I0
I1
tp3446
a(I1
I2
tp3447
a(I0
I0
tp3448
a(I3
I2
tp3449
a(I0
I0
tp3450
a(I2
I1
tp3451
a(I1
I0
tp3452
a(I1
I2
tp3453
a(I5
I3
tp3454
a(I2
I3
tp3455
a(I1
I2
tp3456
a(I0
I0
tp3457
a(I4
I3
tp3458
a(I0
I1
tp3459
a(I2
I1
tp3460
a(I2
I2
tp3461
a(I1
I1
tp3462
a(I0
I3
tp3463
a(I0
I4
tp3464
a(I1
I1
tp3465
a(I1
I0
tp3466
a(I1
I2
tp3467
a(I2
I0
tp3468
a(I1
I3
tp3469
a(I1
I1
tp3470
a(I1
I6
tp3471
a(I1
I1
tp3472
asI129
(lp3473
(I3
I3
tp3474
a(I0
I3
tp3475
a(I1
I0
tp3476
a(I1
I2
tp3477
a(I0
I3
tp3478
a(I2
I3
tp3479
a(I1
I0
tp3480
a(I1
I1
tp3481
a(I0
I2
tp3482
a(I1
I4
tp3483
a(I1
I2
tp3484
a(I1
I2
tp3485
a(I1
I0
tp3486
a(I0
I0
tp3487
a(I1
I1
tp3488
a(I1
I5
tp3489
a(I3
I2
tp3490
a(I2
I1
tp3491
a(I2
I2
tp3492
a(I0
I0
tp3493
a(I1
I1
tp3494
a(I2
I1
tp3495
a(I0
I0
tp3496
a(I0
I0
tp3497
a(I1
I4
tp3498
a(I1
I4
tp3499
a(I2
I3
tp3500
a(I1
I2
tp3501
a(I1
I1
tp3502
a(I1
I2
tp3503
a(I0
I2
tp3504
a(I0
I2
tp3505
a(I1
I3
tp3506
a(I0
I3
tp3507
asI79
(lp3508
(I1
I2
tp3509
a(I1
I1
tp3510
a(I0
I2
tp3511
a(I0
I0
tp3512
a(I1
I0
tp3513
a(I1
I2
tp3514
a(I0
I1
tp3515
a(I0
I4
tp3516
a(I3
I0
tp3517
a(I0
I3
tp3518
a(I2
I2
tp3519
a(I0
I1
tp3520
a(I3
I2
tp3521
a(I0
I1
tp3522
a(I0
I4
tp3523
a(I0
I4
tp3524
a(I0
I3
tp3525
a(I0
I1
tp3526
a(I1
I1
tp3527
a(I3
I1
tp3528
a(I1
I2
tp3529
a(I1
I2
tp3530
a(I1
I1
tp3531
a(I0
I0
tp3532
a(I3
I2
tp3533
a(I2
I1
tp3534
a(I0
I0
tp3535
a(I2
I4
tp3536
a(I2
I0
tp3537
a(I0
I2
tp3538
a(I1
I2
tp3539
a(I2
I3
tp3540
a(I0
I4
tp3541
a(I1
I0
tp3542
asI16
(lp3543
(I0
I2
tp3544
a(I4
I2
tp3545
a(I1
I1
tp3546
a(I0
I0
tp3547
a(I1
I3
tp3548
a(I0
I2
tp3549
a(I3
I0
tp3550
a(I0
I2
tp3551
a(I1
I2
tp3552
a(I0
I1
tp3553
a(I0
I0
tp3554
a(I0
I0
tp3555
a(I1
I1
tp3556
a(I0
I4
tp3557
a(I1
I1
tp3558
a(I1
I1
tp3559
a(I3
I1
tp3560
a(I3
I1
tp3561
a(I1
I0
tp3562
a(I4
I1
tp3563
a(I2
I1
tp3564
a(I1
I3
tp3565
a(I5
I1
tp3566
a(I2
I1
tp3567
a(I2
I2
tp3568
a(I1
I2
tp3569
a(I2
I0
tp3570
a(I2
I1
tp3571
a(I2
I1
tp3572
a(I1
I0
tp3573
a(I2
I1
tp3574
a(I2
I0
tp3575
a(I2
I2
tp3576
a(I1
I1
tp3577
asI81
(lp3578
(I2
I2
tp3579
a(I1
I1
tp3580
a(I2
I1
tp3581
a(I0
I2
tp3582
a(I2
I1
tp3583
a(I3
I2
tp3584
a(I0
I3
tp3585
a(I2
I1
tp3586
a(I0
I1
tp3587
a(I3
I0
tp3588
a(I3
I3
tp3589
a(I1
I0
tp3590
a(I0
I0
tp3591
a(I1
I1
tp3592
a(I0
I2
tp3593
a(I1
I1
tp3594
a(I0
I1
tp3595
a(I2
I4
tp3596
a(I1
I0
tp3597
a(I0
I3
tp3598
a(I1
I0
tp3599
a(I1
I1
tp3600
a(I0
I0
tp3601
a(I1
I2
tp3602
a(I1
I0
tp3603
a(I1
I0
tp3604
a(I0
I1
tp3605
a(I0
I2
tp3606
a(I0
I2
tp3607
a(I1
I0
tp3608
a(I1
I0
tp3609
a(I3
I3
tp3610
a(I2
I2
tp3611
a(I0
I0
tp3612
asI123
(lp3613
(I1
I1
tp3614
a(I0
I1
tp3615
a(I0
I0
tp3616
a(I1
I0
tp3617
a(I3
I0
tp3618
a(I4
I2
tp3619
a(I5
I1
tp3620
a(I1
I2
tp3621
a(I0
I2
tp3622
a(I3
I0
tp3623
a(I1
I0
tp3624
a(I1
I2
tp3625
a(I4
I0
tp3626
a(I1
I2
tp3627
a(I0
I0
tp3628
a(I1
I1
tp3629
a(I1
I3
tp3630
a(I0
I2
tp3631
a(I0
I3
tp3632
a(I0
I2
tp3633
a(I2
I1
tp3634
a(I1
I2
tp3635
a(I2
I2
tp3636
a(I2
I0
tp3637
a(I0
I1
tp3638
a(I0
I1
tp3639
a(I0
I0
tp3640
a(I1
I1
tp3641
a(I0
I4
tp3642
a(I0
I2
tp3643
a(I1
I1
tp3644
a(I5
I1
tp3645
a(I2
I1
tp3646
a(I1
I1
tp3647
asI54
(lp3648
(I1
I0
tp3649
a(I1
I2
tp3650
a(I0
I1
tp3651
a(I2
I3
tp3652
a(I1
I2
tp3653
a(I0
I4
tp3654
a(I1
I5
tp3655
a(I1
I3
tp3656
a(I0
I3
tp3657
a(I0
I0
tp3658
a(I0
I2
tp3659
a(I0
I1
tp3660
a(I1
I1
tp3661
a(I1
I3
tp3662
a(I0
I2
tp3663
a(I2
I2
tp3664
a(I2
I5
tp3665
a(I3
I0
tp3666
a(I0
I0
tp3667
a(I0
I0
tp3668
a(I1
I2
tp3669
a(I1
I1
tp3670
a(I3
I0
tp3671
a(I0
I2
tp3672
a(I0
I1
tp3673
a(I1
I2
tp3674
a(I5
I1
tp3675
a(I0
I0
tp3676
a(I3
I0
tp3677
a(I0
I1
tp3678
a(I2
I2
tp3679
a(I0
I1
tp3680
a(I1
I1
tp3681
a(I1
I3
tp3682
asI55
(lp3683
(I0
I1
tp3684
a(I1
I1
tp3685
a(I2
I0
tp3686
a(I0
I1
tp3687
a(I0
I0
tp3688
a(I1
I1
tp3689
a(I2
I4
tp3690
a(I5
I2
tp3691
a(I1
I2
tp3692
a(I1
I0
tp3693
a(I1
I0
tp3694
a(I2
I2
tp3695
a(I0
I2
tp3696
a(I0
I3
tp3697
a(I0
I0
tp3698
a(I3
I5
tp3699
a(I2
I3
tp3700
a(I0
I3
tp3701
a(I0
I1
tp3702
a(I1
I3
tp3703
a(I1
I2
tp3704
a(I1
I5
tp3705
a(I1
I4
tp3706
a(I0
I1
tp3707
a(I2
I1
tp3708
a(I2
I1
tp3709
a(I0
I2
tp3710
a(I1
I4
tp3711
a(I0
I0
tp3712
a(I4
I2
tp3713
a(I0
I7
tp3714
a(I0
I3
tp3715
a(I6
I1
tp3716
a(I3
I0
tp3717
asI100
(lp3718
(I1
I1
tp3719
a(I4
I1
tp3720
a(I4
I2
tp3721
a(I3
I1
tp3722
a(I3
I1
tp3723
a(I1
I1
tp3724
a(I1
I0
tp3725
a(I3
I1
tp3726
a(I0
I0
tp3727
a(I3
I3
tp3728
a(I2
I3
tp3729
a(I2
I2
tp3730
a(I0
I1
tp3731
a(I1
I1
tp3732
a(I0
I0
tp3733
a(I4
I0
tp3734
a(I2
I1
tp3735
a(I2
I0
tp3736
a(I0
I1
tp3737
a(I1
I1
tp3738
a(I3
I3
tp3739
a(I3
I1
tp3740
a(I0
I0
tp3741
a(I0
I1
tp3742
a(I1
I0
tp3743
a(I2
I4
tp3744
a(I2
I2
tp3745
a(I0
I1
tp3746
a(I0
I0
tp3747
a(I2
I1
tp3748
a(I0
I1
tp3749
a(I1
I5
tp3750
a(I4
I0
tp3751
a(I1
I1
tp3752
asI91
(lp3753
(I3
I2
tp3754
a(I1
I1
tp3755
a(I0
I0
tp3756
a(I1
I1
tp3757
a(I2
I0
tp3758
a(I1
I1
tp3759
a(I0
I3
tp3760
a(I0
I2
tp3761
a(I2
I1
tp3762
a(I1
I2
tp3763
a(I2
I1
tp3764
a(I0
I4
tp3765
a(I1
I2
tp3766
a(I3
I1
tp3767
a(I2
I0
tp3768
a(I1
I1
tp3769
a(I2
I2
tp3770
a(I1
I0
tp3771
a(I1
I1
tp3772
a(I1
I2
tp3773
a(I3
I2
tp3774
a(I2
I1
tp3775
a(I0
I0
tp3776
a(I1
I2
tp3777
a(I1
I4
tp3778
a(I1
I2
tp3779
a(I2
I1
tp3780
a(I2
I1
tp3781
a(I3
I2
tp3782
a(I0
I2
tp3783
a(I2
I2
tp3784
a(I3
I3
tp3785
a(I1
I2
tp3786
a(I1
I3
tp3787
ass.